(dp1
I0
(lp2
(lp3
S'X'
aS'X'
aS'X'
aS'X'
aS'X'
aS'X'
aS'X'
aS'X'
aS'X'
aS'X'
aS'X'
aS'X'
aS'X'
aS'X'
aS'X'
aS'X'
aS'X'
aS'X'
aS'X'
aS'3_0'
p4
aa(lp5
S'X'
aS'X'
aS'X'
aS'X'
aS'X'
aS'X'
aS'X'
aS'X'
aS'X'
aS'X'
aS'X'
aS'X'
aS'X'
aS'X'
aS'X'
aS'X'
aS'X'
aS'X'
aS'X'
aS'3_0'
p6
aa(lp7
S'X'
aS'X'
aS'X'
aS'X'
aS'X'
aS'X'
aS'X'
aS'X'
aS'X'
aS'X'
aS'X'
aS'X'
aS'X'
aS'X'
aS'X'
aS'X'
aS'X'
aS'X'
aS'X'
aS'3_0'
p8
aa(lp9
S'X'
aS'X'
aS'X'
aS'X'
aS'X'
aS'X'
aS'X'
aS'X'
aS'X'
aS'X'
aS'X'
aS'X'
aS'X'
aS'X'
aS'X'
aS'X'
aS'X'
aS'X'
aS'X'
aS'3_0'
p10
aa(lp11
S'X'
aS'X'
aS'X'
aS'X'
aS'X'
aS'X'
aS'X'
aS'X'
aS'X'
aS'X'
aS'X'
aS'X'
aS'X'
aS'X'
aS'X'
aS'X'
aS'X'
aS'X'
aS'X'
aS'3_0'
p12
aa(lp13
S'X'
aS'X'
aS'X'
aS'X'
aS'X'
aS'X'
aS'X'
aS'X'
aS'X'
aS'X'
aS'X'
aS'X'
aS'X'
aS'X'
aS'X'
aS'X'
aS'X'
aS'X'
aS'X'
aS'3_0'
p14
aa(lp15
S'X'
aS'X'
aS'X'
aS'X'
aS'X'
aS'X'
aS'X'
aS'X'
aS'X'
aS'X'
aS'X'
aS'X'
aS'X'
aS'X'
aS'X'
aS'X'
aS'X'
aS'X'
aS'X'
aS'3_0'
p16
aa(lp17
S'X'
aS'X'
aS'X'
aS'X'
aS'X'
aS'X'
aS'X'
aS'X'
aS'X'
aS'X'
aS'X'
aS'X'
aS'X'
aS'X'
aS'X'
aS'X'
aS'X'
aS'X'
aS'X'
aS'3_0'
p18
aa(lp19
S'X'
aS'X'
aS'X'
aS'X'
aS'X'
aS'X'
aS'X'
aS'X'
aS'X'
aS'X'
aS'X'
aS'X'
aS'X'
aS'X'
aS'X'
aS'X'
aS'X'
aS'X'
aS'3_0'
p20
aS'3_0'
p21
aa(lp22
S'X'
aS'X'
aS'X'
aS'X'
aS'X'
aS'X'
aS'X'
aS'X'
aS'X'
aS'X'
aS'X'
aS'X'
aS'X'
aS'X'
aS'X'
aS'3_0'
p23
aS'3_0'
p24
aS'3_0'
p25
aS'3_0'
p26
aS'3_0'
p27
aa(lp28
S'3_0'
p29
aS'3_0'
p30
aS'X'
aS'X'
aS'X'
aS'X'
aS'X'
aS'X'
aS'X'
aS'X'
aS'X'
aS'X'
aS'X'
aS'X'
aS'X'
aS'X'
aS'3_0'
p31
aS'3_0'
p32
aS'3_0'
p33
aS'3_0'
p34
aa(lp35
S'3_0'
p36
aS'3_0'
p37
aS'3_0'
p38
aS'3_0'
p39
aS'3_0'
p40
aS'3_0'
p41
aS'X'
aS'X'
aS'X'
aS'X'
aS'X'
aS'X'
aS'X'
aS'X'
aS'X'
aS'X'
aS'X'
aS'3_0'
p42
aS'3_0'
p43
aS'3_0'
p44
aa(lp45
S'3_0'
p46
aS'3_0'
p47
aS'3_0'
p48
aS'3_0'
p49
aS'3_0'
p50
aS'3_0'
p51
aS'3_0'
p52
aS'X'
aS'X'
aS'X'
aS'X'
aS'X'
aS'X'
aS'X'
aS'X'
aS'X'
aS'X'
aS'X'
aS'3_0'
p53
aS'3_0'
p54
aa(lp55
S'3_0'
p56
aS'3_0'
p57
aS'3_0'
p58
aS'3_0'
p59
aS'3_0'
p60
aS'3_0'
p61
aS'3_0'
p62
aS'X'
aS'X'
aS'X'
aS'X'
aS'X'
aS'X'
aS'X'
aS'X'
aS'X'
aS'X'
aS'X'
aS'X'
aS'3_0'
p63
aa(lp64
S'3_0'
p65
aS'3_0'
p66
aS'3_0'
p67
aS'3_0'
p68
aS'3_0'
p69
aS'3_0'
p70
aS'X'
aS'X'
aS'X'
aS'X'
aS'X'
aS'X'
aS'X'
aS'X'
aS'X'
aS'X'
aS'X'
aS'X'
aS'X'
aS'3_0'
p71
aa(lp72
S'3_0'
p73
aS'3_0'
p74
aS'3_0'
p75
aS'3_0'
p76
aS'3_0'
p77
aS'X'
aS'X'
aS'X'
aS'X'
aS'X'
aS'X'
aS'X'
aS'X'
aS'X'
aS'X'
aS'X'
aS'X'
aS'X'
aS'X'
aS'3_0'
p78
aa(lp79
S'3_0'
p80
aS'3_0'
p81
aS'3_0'
p82
aS'3_0'
p83
aS'3_0'
p84
aS'X'
aS'X'
aS'X'
aS'X'
aS'X'
aS'X'
aS'X'
aS'X'
aS'X'
aS'X'
aS'X'
aS'X'
aS'X'
aS'X'
aS'3_0'
p85
aa(lp86
S'3_0'
p87
aS'3_0'
p88
aS'3_0'
p89
aS'3_0'
p90
aS'X'
aS'X'
aS'X'
aS'X'
aS'X'
aS'X'
aS'X'
aS'X'
aS'X'
aS'X'
aS'X'
aS'X'
aS'X'
aS'X'
aS'X'
aS'3_0'
p91
aa(lp92
S'X'
aS'X'
aS'X'
aS'X'
aS'X'
aS'X'
aS'X'
aS'X'
aS'X'
aS'X'
aS'X'
aS'X'
aS'X'
aS'X'
aS'X'
aS'X'
aS'X'
aS'X'
aS'X'
aS'3_0'
p93
aa(lp94
S'3_0'
p95
aS'3_0'
p96
aS'3_0'
p97
aS'3_0'
p98
aS'3_0'
p99
aS'3_0'
p100
aS'3_0'
p101
aS'3_0'
p102
aS'3_0'
p103
aS'3_0'
p104
aS'3_0'
p105
aS'3_0'
p106
aS'3_0'
p107
aS'3_0'
p108
aS'3_0'
p109
aS'3_0'
p110
aS'3_0'
p111
aS'3_0'
p112
aS'3_0'
p113
aS'3_0'
p114
aasI1
(lp115
(lp116
S'X'
aS'X'
aS'X'
aS'X'
aS'X'
aS'X'
aS'X'
aS'X'
aS'X'
aS'X'
aS'X'
aS'X'
aS'X'
aS'X'
aS'X'
aS'X'
aS'X'
aS'X'
aS'X'
aS'3_0'
p117
aa(lp118
S'X'
aS'X'
aS'X'
aS'X'
aS'X'
aS'X'
aS'X'
aS'X'
aS'X'
aS'X'
aS'X'
aS'X'
aS'X'
aS'X'
aS'X'
aS'X'
aS'X'
aS'X'
aS'X'
aS'3_0'
p119
aa(lp120
S'X'
aS'X'
aS'X'
aS'X'
aS'X'
aS'X'
aS'X'
aS'X'
aS'X'
aS'X'
aS'X'
aS'X'
aS'X'
aS'X'
aS'3_0'
p121
aS'3_0'
p122
aS'3_0'
p123
aS'3_0'
p124
aS'3_0'
p125
aS'3_0'
p126
aa(lp127
S'X'
aS'X'
aS'X'
aS'X'
aS'X'
aS'X'
aS'X'
aS'X'
aS'X'
aS'X'
aS'X'
aS'X'
aS'X'
aS'X'
aS'3_0'
p128
aS'3_0'
p129
aS'3_0'
p130
aS'3_0'
p131
aS'3_0'
p132
aS'3_0'
p133
aa(lp134
S'X'
aS'X'
aS'X'
aS'X'
aS'X'
aS'X'
aS'X'
aS'X'
aS'X'
aS'X'
aS'X'
aS'X'
aS'X'
aS'3_0'
p135
aS'3_0'
p136
aS'3_0'
p137
aS'3_0'
p138
aS'3_0'
p139
aS'3_0'
p140
aS'1'
aa(lp141
S'X'
aS'X'
aS'X'
aS'X'
aS'X'
aS'X'
aS'X'
aS'X'
aS'X'
aS'X'
aS'X'
aS'X'
aS'3_0'
p142
aS'3_0'
p143
aS'3_0'
p144
aS'3_0'
p145
aS'3_0'
p146
aS'3_0'
p147
aS'3_0'
p148
aS'1'
aa(lp149
S'X'
aS'X'
aS'X'
aS'X'
aS'X'
aS'X'
aS'X'
aS'X'
aS'X'
aS'X'
aS'X'
aS'X'
aS'3_0'
p150
aS'3_0'
p151
aS'3_0'
p152
aS'3_0'
p153
aS'3_0'
p154
aS'3_0'
p155
aS'3_0'
p156
aS'1'
aa(lp157
S'X'
aS'X'
aS'X'
aS'X'
aS'X'
aS'X'
aS'X'
aS'X'
aS'X'
aS'X'
aS'X'
aS'3_0'
p158
aS'3_0'
p159
aS'3_0'
p160
aS'3_0'
p161
aS'3_0'
p162
aS'3_0'
p163
aS'3_0'
p164
aS'3_0'
p165
aS'1'
aa(lp166
S'3_0'
p167
aS'X'
aS'X'
aS'X'
aS'X'
aS'X'
aS'X'
aS'X'
aS'X'
aS'X'
aS'3_0'
p168
aS'3_0'
p169
aS'3_0'
p170
aS'3_0'
p171
aS'3_0'
p172
aS'3_0'
p173
aS'3_0'
p174
aS'3_0'
p175
aS'1'
aS'1'
aa(lp176
S'3_0'
p177
aS'3_0'
p178
aS'3_0'
p179
aS'3_0'
p180
aS'3_0'
p181
aS'3_0'
p182
aS'3_0'
p183
aS'3_0'
p184
aS'3_0'
p185
aS'3_0'
p186
aS'3_0'
p187
aS'3_0'
p188
aS'3_0'
p189
aS'3_0'
p190
aS'3_0'
p191
aS'1'
aS'1'
aS'1'
aS'1'
aS'1'
aa(lp192
S'1'
aS'1'
aS'3_0'
p193
aS'3_0'
p194
aS'3_0'
p195
aS'3_0'
p196
aS'3_0'
p197
aS'3_0'
p198
aS'3_0'
p199
aS'3_0'
p200
aS'3_0'
p201
aS'3_0'
p202
aS'3_0'
p203
aS'3_0'
p204
aS'3_0'
p205
aS'3_0'
p206
aS'1'
aS'1'
aS'1'
aS'1'
aa(lp207
S'1'
aS'1'
aS'1'
aS'1'
aS'1'
aS'1'
aS'3_0'
p208
aS'3_0'
p209
aS'3_0'
p210
aS'3_0'
p211
aS'3_0'
p212
aS'3_0'
p213
aS'3_0'
p214
aS'3_0'
p215
aS'3_0'
p216
aS'3_0'
p217
aS'3_0'
p218
aS'1'
aS'1'
aS'1'
aa(lp219
S'1'
aS'1'
aS'1'
aS'1'
aS'1'
aS'1'
aS'1'
aS'3_0'
p220
aS'3_0'
p221
aS'3_0'
p222
aS'X'
aS'X'
aS'3_0'
p223
aS'3_0'
p224
aS'3_0'
p225
aS'3_0'
p226
aS'3_0'
p227
aS'3_0'
p228
aS'1'
aS'1'
aa(lp229
S'1'
aS'1'
aS'1'
aS'1'
aS'1'
aS'1'
aS'1'
aS'3_0'
p230
aS'3_0'
p231
aS'3_0'
p232
aS'X'
aS'X'
aS'X'
aS'3_0'
p233
aS'3_0'
p234
aS'3_0'
p235
aS'3_0'
p236
aS'3_0'
p237
aS'3_0'
p238
aS'1'
aa(lp239
S'1'
aS'1'
aS'1'
aS'1'
aS'1'
aS'1'
aS'3_0'
p240
aS'3_0'
p241
aS'3_0'
p242
aS'3_0'
p243
aS'X'
aS'X'
aS'X'
aS'X'
aS'3_0'
p244
aS'3_0'
p245
aS'3_0'
p246
aS'3_0'
p247
aS'3_0'
p248
aS'1'
aa(lp249
S'1'
aS'1'
aS'1'
aS'1'
aS'1'
aS'3_0'
p250
aS'3_0'
p251
aS'3_0'
p252
aS'3_0'
p253
aS'3_0'
p254
aS'3_0'
p255
aS'3_0'
p256
aS'3_0'
p257
aS'X'
aS'X'
aS'3_0'
p258
aS'3_0'
p259
aS'3_0'
p260
aS'3_0'
p261
aS'1'
aa(lp262
S'1'
aS'1'
aS'1'
aS'1'
aS'1'
aS'3_0'
p263
aS'3_0'
p264
aS'3_0'
p265
aS'3_0'
p266
aS'3_0'
p267
aS'3_0'
p268
aS'3_0'
p269
aS'3_0'
p270
aS'3_0'
p271
aS'X'
aS'3_0'
p272
aS'3_0'
p273
aS'3_0'
p274
aS'3_0'
p275
aS'1'
aa(lp276
S'1'
aS'1'
aS'1'
aS'1'
aS'3_0'
p277
aS'3_0'
p278
aS'3_0'
p279
aS'3_0'
p280
aS'3_0'
p281
aS'X'
aS'3_0'
p282
aS'3_0'
p283
aS'3_0'
p284
aS'X'
aS'X'
aS'X'
aS'X'
aS'3_0'
p285
aS'3_0'
p286
aS'1'
aa(lp287
S'3_0'
p288
aS'3_0'
p289
aS'3_0'
p290
aS'3_0'
p291
aS'3_0'
p292
aS'3_0'
p293
aS'3_0'
p294
aS'3_0'
p295
aS'X'
aS'X'
aS'X'
aS'X'
aS'X'
aS'X'
aS'X'
aS'X'
aS'X'
aS'X'
aS'3_0'
p296
aS'3_0'
p297
aa(lp298
S'3_0'
p299
aS'3_0'
p300
aS'3_0'
p301
aS'3_0'
p302
aS'3_0'
p303
aS'3_0'
p304
aS'3_0'
p305
aS'3_0'
p306
aS'3_0'
p307
aS'3_0'
p308
aS'3_0'
p309
aS'3_0'
p310
aS'3_0'
p311
aS'3_0'
p312
aS'3_0'
p313
aS'3_0'
p314
aS'3_0'
p315
aS'3_0'
p316
aS'3_0'
p317
aS'3_0'
p318
aasI2
(lp319
(lp320
S'X'
aS'X'
aS'X'
aS'X'
aS'X'
aS'X'
aS'X'
aS'X'
aS'X'
aS'X'
aS'X'
aS'X'
aS'X'
aS'3_0'
p321
aS'3_0'
p322
aS'3_0'
p323
aS'3_0'
p324
aS'3_0'
p325
aS'3_0'
p326
aS'1'
aa(lp327
S'X'
aS'X'
aS'X'
aS'X'
aS'X'
aS'X'
aS'X'
aS'X'
aS'X'
aS'X'
aS'X'
aS'X'
aS'3_0'
p328
aS'3_0'
p329
aS'3_0'
p330
aS'3_0'
p331
aS'3_0'
p332
aS'3_0'
p333
aS'3_0'
p334
aS'1'
aa(lp335
S'X'
aS'X'
aS'X'
aS'X'
aS'X'
aS'X'
aS'X'
aS'X'
aS'X'
aS'X'
aS'X'
aS'X'
aS'3_0'
p336
aS'3_0'
p337
aS'1'
aS'1'
aS'1'
aS'1'
aS'1'
aS'1'
aa(lp338
S'X'
aS'X'
aS'X'
aS'X'
aS'X'
aS'X'
aS'X'
aS'X'
aS'X'
aS'X'
aS'X'
aS'3_0'
p339
aS'3_0'
p340
aS'3_0'
p341
aS'1'
aS'1'
aS'1'
aS'1'
aS'1'
aS'1'
aa(lp342
S'X'
aS'X'
aS'X'
aS'X'
aS'X'
aS'X'
aS'X'
aS'X'
aS'X'
aS'X'
aS'X'
aS'3_0'
p343
aS'3_0'
p344
aS'1'
aS'1'
aS'1'
aS'1'
aS'1'
aS'1'
aS'1'
aa(lp345
S'X'
aS'X'
aS'X'
aS'X'
aS'X'
aS'X'
aS'X'
aS'X'
aS'X'
aS'X'
aS'3_0'
p346
aS'3_0'
p347
aS'1'
aS'1'
aS'1'
aS'1'
aS'1'
aS'1'
aS'1'
aS'1'
aa(lp348
S'X'
aS'X'
aS'X'
aS'X'
aS'X'
aS'X'
aS'X'
aS'X'
aS'X'
aS'3_0'
p349
aS'3_0'
p350
aS'3_0'
p351
aS'1'
aS'1'
aS'1'
aS'1'
aS'1'
aS'1'
aS'1'
aS'1'
aa(lp352
S'3_0'
p353
aS'3_0'
p354
aS'3_0'
p355
aS'3_0'
p356
aS'3_0'
p357
aS'3_0'
p358
aS'3_0'
p359
aS'3_0'
p360
aS'3_0'
p361
aS'3_0'
p362
aS'3_0'
p363
aS'1'
aS'1'
aS'1'
aS'1'
aS'1'
aS'1'
aS'1'
aS'1'
aS'1'
aa(lp364
S'1'
aS'3_0'
p365
aS'3_0'
p366
aS'3_0'
p367
aS'3_0'
p368
aS'3_0'
p369
aS'3_0'
p370
aS'3_0'
p371
aS'3_0'
p372
aS'3_0'
p373
aS'1'
aS'1'
aS'1'
aS'1'
aS'1'
aS'1'
aS'1'
aS'1'
aS'1'
aS'1'
aa(lp374
S'1'
aS'1'
aS'1'
aS'1'
aS'1'
aS'1'
aS'1'
aS'1'
aS'1'
aS'1'
aS'1'
aS'1'
aS'1'
aS'1'
aS'1'
aS'1'
aS'1'
aS'1'
aS'1'
aS'1'
aa(lp375
S'1'
aS'1'
aS'1'
aS'1'
aS'1'
aS'1'
aS'1'
aS'1'
aS'1'
aS'1'
aS'1'
aS'1'
aS'1'
aS'1'
aS'1'
aS'1'
aS'1'
aS'1'
aS'1'
aS'1'
aa(lp376
S'1'
aS'1'
aS'1'
aS'1'
aS'1'
aS'1'
aS'1'
aS'1'
aS'1'
aS'1'
aS'1'
aS'1'
aS'1'
aS'1'
aS'1'
aS'1'
aS'1'
aS'1'
aS'1'
aS'1'
aa(lp377
S'1'
aS'1'
aS'1'
aS'1'
aS'1'
aS'1'
aS'1'
aS'1'
aS'1'
aS'1'
aS'3_0'
p378
aS'3_0'
p379
aS'1'
aS'1'
aS'1'
aS'1'
aS'1'
aS'1'
aS'1'
aS'1'
aa(lp380
S'1'
aS'1'
aS'1'
aS'1'
aS'1'
aS'1'
aS'1'
aS'1'
aS'1'
aS'1'
aS'3_0'
p381
aS'3_0'
p382
aS'3_0'
p383
aS'1'
aS'1'
aS'1'
aS'1'
aS'1'
aS'1'
aS'1'
aa(lp384
S'1'
aS'1'
aS'1'
aS'1'
aS'1'
aS'1'
aS'1'
aS'1'
aS'1'
aS'1'
aS'3_0'
p385
aS'3_0'
p386
aS'3_0'
p387
aS'3_0'
p388
aS'1'
aS'1'
aS'1'
aS'1'
aS'1'
aS'1'
aa(lp389
S'1'
aS'1'
aS'1'
aS'1'
aS'1'
aS'1'
aS'1'
aS'1'
aS'1'
aS'1'
aS'1'
aS'1'
aS'1'
aS'3_0'
p390
aS'3_0'
p391
aS'1'
aS'1'
aS'1'
aS'1'
aS'1'
aa(lp392
S'1'
aS'1'
aS'1'
aS'1'
aS'1'
aS'1'
aS'1'
aS'1'
aS'1'
aS'1'
aS'1'
aS'1'
aS'1'
aS'1'
aS'3_0'
p393
aS'1'
aS'1'
aS'1'
aS'1'
aS'1'
aa(lp394
S'1'
aS'1'
aS'1'
aS'1'
aS'1'
aS'1'
aS'1'
aS'1'
aS'1'
aS'3_0'
p395
aS'1'
aS'1'
aS'1'
aS'3_0'
p396
aS'3_0'
p397
aS'3_0'
p398
aS'3_0'
p399
aS'1'
aS'1'
aS'1'
aa(lp400
S'1'
aS'1'
aS'1'
aS'1'
aS'1'
aS'1'
aS'1'
aS'1'
aS'3_0'
p401
aS'3_0'
p402
aS'3_0'
p403
aS'3_0'
p404
aS'3_0'
p405
aS'3_0'
p406
aS'3_0'
p407
aS'3_0'
p408
aS'3_0'
p409
aS'3_0'
p410
aS'1'
aS'1'
aa(lp411
S'1'
aS'1'
aS'1'
aS'3_0'
p412
aS'3_0'
p413
aS'3_0'
p414
aS'3_0'
p415
aS'3_0'
p416
aS'3_0'
p417
aS'3_0'
p418
aS'3_0'
p419
aS'3_0'
p420
aS'3_0'
p421
aS'3_0'
p422
aS'3_0'
p423
aS'3_0'
p424
aS'3_0'
p425
aS'3_0'
p426
aS'3_0'
p427
aS'3_0'
p428
aasI3
(lp429
(lp430
S'X'
aS'X'
aS'X'
aS'X'
aS'X'
aS'X'
aS'X'
aS'X'
aS'X'
aS'X'
aS'3_0'
p431
aS'3_0'
p432
aS'3_0'
p433
aS'1'
aS'1'
aS'1'
aS'1'
aS'1'
aS'1'
aS'1'
aa(lp434
S'X'
aS'X'
aS'X'
aS'X'
aS'X'
aS'X'
aS'X'
aS'X'
aS'X'
aS'3_0'
p435
aS'3_0'
p436
aS'3_0'
p437
aS'1'
aS'1'
aS'1'
aS'1'
aS'1'
aS'1'
aS'1'
aS'1'
aa(lp438
S'X'
aS'X'
aS'X'
aS'X'
aS'X'
aS'X'
aS'X'
aS'X'
aS'X'
aS'3_0'
p439
aS'3_0'
p440
aS'3_0'
p441
aS'1'
aS'1'
aS'1'
aS'1'
aS'1'
aS'1'
aS'1'
aS'1'
aa(lp442
S'X'
aS'X'
aS'X'
aS'X'
aS'X'
aS'X'
aS'X'
aS'3_0'
p443
aS'3_0'
p444
aS'3_0'
p445
aS'3_0'
p446
aS'1'
aS'1'
aS'1'
aS'1'
aS'1'
aS'1'
aS'1'
aS'1'
aS'1'
aa(lp447
S'X'
aS'X'
aS'X'
aS'X'
aS'X'
aS'3_0'
p448
aS'3_0'
p449
aS'3_0'
p450
aS'3_0'
p451
aS'3_0'
p452
aS'3_0'
p453
aS'1'
aS'1'
aS'1'
aS'1'
aS'1'
aS'1'
aS'1'
aS'1'
aS'1'
aa(lp454
S'3_0'
p455
aS'3_0'
p456
aS'3_0'
p457
aS'3_0'
p458
aS'3_0'
p459
aS'3_0'
p460
aS'3_0'
p461
aS'3_0'
p462
aS'3_0'
p463
aS'3_0'
p464
aS'1'
aS'1'
aS'1'
aS'1'
aS'1'
aS'1'
aS'1'
aS'1'
aS'1'
aS'1'
aa(lp465
S'3_0'
p466
aS'3_0'
p467
aS'3_0'
p468
aS'3_0'
p469
aS'3_0'
p470
aS'3_0'
p471
aS'3_0'
p472
aS'3_0'
p473
aS'3_0'
p474
aS'1'
aS'1'
aS'1'
aS'1'
aS'1'
aS'1'
aS'1'
aS'1'
aS'1'
aS'1'
aS'1'
aa(lp475
S'1'
aS'1'
aS'1'
aS'1'
aS'1'
aS'1'
aS'1'
aS'1'
aS'1'
aS'1'
aS'1'
aS'1'
aS'1'
aS'1'
aS'1'
aS'1'
aS'1'
aS'1'
aS'1'
aS'1'
aa(lp476
S'1'
aS'1'
aS'1'
aS'1'
aS'1'
aS'1'
aS'1'
aS'1'
aS'1'
aS'1'
aS'1'
aS'1'
aS'1'
aS'1'
aS'1'
aS'1'
aS'1'
aS'1'
aS'1'
aS'1'
aa(lp477
S'1'
aS'1'
aS'1'
aS'1'
aS'1'
aS'1'
aS'1'
aS'1'
aS'1'
aS'1'
aS'1'
aS'1'
aS'1'
aS'1'
aS'1'
aS'1'
aS'1'
aS'1'
aS'1'
aS'1'
aa(lp478
S'1'
aS'1'
aS'1'
aS'1'
aS'1'
aS'1'
aS'1'
aS'1'
aS'1'
aS'1'
aS'1'
aS'1'
aS'1'
aS'1'
aS'1'
aS'1'
aS'1'
aS'1'
aS'1'
aS'1'
aa(lp479
S'1'
aS'1'
aS'1'
aS'1'
aS'1'
aS'1'
aS'1'
aS'1'
aS'1'
aS'1'
aS'1'
aS'1'
aS'1'
aS'1'
aS'1'
aS'1'
aS'1'
aS'1'
aS'1'
aS'1'
aa(lp480
S'1'
aS'1'
aS'1'
aS'1'
aS'1'
aS'1'
aS'1'
aS'1'
aS'1'
aS'1'
aS'1'
aS'1'
aS'1'
aS'1'
aS'1'
aS'1'
aS'1'
aS'1'
aS'1'
aS'1'
aa(lp481
S'1'
aS'1'
aS'1'
aS'1'
aS'1'
aS'1'
aS'1'
aS'1'
aS'1'
aS'1'
aS'1'
aS'1'
aS'1'
aS'1'
aS'1'
aS'1'
aS'1'
aS'1'
aS'1'
aS'1'
aa(lp482
S'1'
aS'1'
aS'1'
aS'1'
aS'1'
aS'1'
aS'1'
aS'1'
aS'1'
aS'1'
aS'1'
aS'1'
aS'1'
aS'1'
aS'1'
aS'1'
aS'1'
aS'1'
aS'1'
aS'1'
aa(lp483
S'1'
aS'1'
aS'1'
aS'1'
aS'1'
aS'1'
aS'1'
aS'1'
aS'1'
aS'1'
aS'1'
aS'1'
aS'1'
aS'1'
aS'1'
aS'1'
aS'1'
aS'1'
aS'1'
aS'1'
aa(lp484
S'1'
aS'1'
aS'1'
aS'1'
aS'1'
aS'1'
aS'1'
aS'1'
aS'1'
aS'1'
aS'1'
aS'1'
aS'1'
aS'1'
aS'1'
aS'1'
aS'1'
aS'1'
aS'1'
aS'1'
aa(lp485
S'1'
aS'1'
aS'1'
aS'1'
aS'1'
aS'1'
aS'1'
aS'1'
aS'1'
aS'1'
aS'1'
aS'1'
aS'1'
aS'1'
aS'1'
aS'1'
aS'1'
aS'1'
aS'1'
aS'1'
aa(lp486
S'1'
aS'1'
aS'1'
aS'1'
aS'1'
aS'1'
aS'1'
aS'1'
aS'1'
aS'1'
aS'1'
aS'1'
aS'1'
aS'1'
aS'1'
aS'1'
aS'1'
aS'1'
aS'1'
aS'1'
aa(lp487
S'1'
aS'1'
aS'1'
aS'1'
aS'1'
aS'1'
aS'1'
aS'1'
aS'1'
aS'1'
aS'1'
aS'1'
aS'1'
aS'1'
aS'3_0'
p488
aS'3_0'
p489
aS'3_0'
p490
aS'3_0'
p491
aS'1'
aS'1'
aasI4
(lp492
(lp493
S'X'
aS'X'
aS'X'
aS'X'
aS'X'
aS'X'
aS'X'
aS'X'
aS'X'
aS'0_0'
p494
aS'2'
aS'1'
aS'1'
aS'1'
aS'1'
aS'1'
aS'1'
aS'1'
aS'1'
aS'1'
aa(lp495
S'X'
aS'X'
aS'X'
aS'X'
aS'X'
aS'X'
aS'X'
aS'X'
aS'0_0'
p496
aS'2'
aS'2'
aS'1'
aS'1'
aS'1'
aS'1'
aS'1'
aS'1'
aS'1'
aS'1'
aS'1'
aa(lp497
S'X'
aS'X'
aS'X'
aS'X'
aS'X'
aS'X'
aS'X'
aS'0_0'
p498
aS'0_0'
p499
aS'2'
aS'1'
aS'1'
aS'1'
aS'1'
aS'1'
aS'1'
aS'1'
aS'1'
aS'1'
aS'1'
aa(lp500
S'X'
aS'X'
aS'X'
aS'X'
aS'X'
aS'3_0'
p501
aS'0_0'
p502
aS'2'
aS'2'
aS'2'
aS'1'
aS'1'
aS'1'
aS'1'
aS'1'
aS'1'
aS'1'
aS'1'
aS'1'
aS'1'
aa(lp503
S'3_0'
p504
aS'3_0'
p505
aS'3_0'
p506
aS'3_0'
p507
aS'3_0'
p508
aS'2'
aS'2'
aS'2'
aS'1'
aS'1'
aS'1'
aS'1'
aS'1'
aS'1'
aS'1'
aS'1'
aS'1'
aS'1'
aS'1'
aS'1'
aa(lp509
S'2'
aS'2'
aS'2'
aS'2'
aS'2'
aS'2'
aS'1'
aS'1'
aS'1'
aS'1'
aS'1'
aS'1'
aS'1'
aS'1'
aS'1'
aS'1'
aS'1'
aS'1'
aS'1'
aS'1'
aa(lp510
S'1'
aS'1'
aS'1'
aS'1'
aS'1'
aS'1'
aS'1'
aS'1'
aS'1'
aS'1'
aS'1'
aS'1'
aS'1'
aS'1'
aS'1'
aS'1'
aS'1'
aS'1'
aS'1'
aS'1'
aa(lp511
S'1'
aS'1'
aS'1'
aS'1'
aS'1'
aS'1'
aS'1'
aS'1'
aS'1'
aS'1'
aS'1'
aS'1'
aS'1'
aS'1'
aS'1'
aS'1'
aS'1'
aS'1'
aS'1'
aS'1'
aa(lp512
S'1'
aS'1'
aS'1'
aS'1'
aS'1'
aS'1'
aS'1'
aS'1'
aS'1'
aS'1'
aS'1'
aS'1'
aS'1'
aS'1'
aS'1'
aS'1'
aS'1'
aS'1'
aS'1'
aS'1'
aa(lp513
S'1'
aS'1'
aS'1'
aS'1'
aS'1'
aS'1'
aS'1'
aS'1'
aS'1'
aS'1'
aS'1'
aS'1'
aS'1'
aS'1'
aS'1'
aS'1'
aS'1'
aS'1'
aS'1'
aS'1'
aa(lp514
S'1'
aS'1'
aS'1'
aS'1'
aS'1'
aS'1'
aS'1'
aS'1'
aS'1'
aS'1'
aS'1'
aS'1'
aS'1'
aS'1'
aS'1'
aS'1'
aS'1'
aS'1'
aS'1'
aS'1'
aa(lp515
S'1'
aS'1'
aS'1'
aS'1'
aS'1'
aS'1'
aS'1'
aS'1'
aS'1'
aS'1'
aS'1'
aS'1'
aS'1'
aS'1'
aS'1'
aS'1'
aS'1'
aS'1'
aS'1'
aS'1'
aa(lp516
S'1'
aS'1'
aS'1'
aS'1'
aS'1'
aS'1'
aS'1'
aS'1'
aS'1'
aS'1'
aS'1'
aS'1'
aS'1'
aS'1'
aS'1'
aS'1'
aS'1'
aS'1'
aS'1'
aS'1'
aa(lp517
S'1'
aS'1'
aS'1'
aS'1'
aS'1'
aS'1'
aS'1'
aS'1'
aS'1'
aS'1'
aS'1'
aS'1'
aS'1'
aS'1'
aS'1'
aS'1'
aS'1'
aS'1'
aS'1'
aS'1'
aa(lp518
S'1'
aS'1'
aS'1'
aS'1'
aS'1'
aS'1'
aS'1'
aS'1'
aS'1'
aS'1'
aS'1'
aS'1'
aS'1'
aS'1'
aS'1'
aS'1'
aS'1'
aS'1'
aS'1'
aS'1'
aa(lp519
S'1'
aS'1'
aS'1'
aS'1'
aS'1'
aS'1'
aS'1'
aS'1'
aS'1'
aS'1'
aS'1'
aS'1'
aS'1'
aS'1'
aS'1'
aS'1'
aS'1'
aS'1'
aS'1'
aS'1'
aa(lp520
S'1'
aS'1'
aS'1'
aS'1'
aS'1'
aS'1'
aS'1'
aS'1'
aS'1'
aS'1'
aS'1'
aS'1'
aS'1'
aS'1'
aS'1'
aS'1'
aS'1'
aS'1'
aS'1'
aS'1'
aa(lp521
S'1'
aS'1'
aS'1'
aS'1'
aS'1'
aS'1'
aS'1'
aS'1'
aS'1'
aS'1'
aS'1'
aS'1'
aS'1'
aS'1'
aS'1'
aS'1'
aS'1'
aS'1'
aS'1'
aS'1'
aa(lp522
S'1'
aS'1'
aS'1'
aS'1'
aS'1'
aS'1'
aS'1'
aS'1'
aS'1'
aS'1'
aS'1'
aS'1'
aS'1'
aS'1'
aS'1'
aS'1'
aS'1'
aS'1'
aS'1'
aS'1'
aa(lp523
S'1'
aS'1'
aS'1'
aS'1'
aS'1'
aS'1'
aS'1'
aS'1'
aS'1'
aS'1'
aS'1'
aS'1'
aS'1'
aS'1'
aS'1'
aS'1'
aS'1'
aS'1'
aS'1'
aS'1'
aasI5
(lp524
(lp525
S'X'
aS'X'
aS'X'
aS'X'
aS'X'
aS'X'
aS'0_2'
p526
aS'0_2'
p527
aS'0_2'
p528
aS'@'
aS'@'
aS'@'
aS'@'
aS'@'
aS'@'
aS'@'
aS'@'
aS'@'
aS'@'
aS'@'
aa(lp529
S'X'
aS'X'
aS'X'
aS'X'
aS'X'
aS'X'
aS'0_0'
p530
aS'0_0'
p531
aS'@'
aS'@'
aS'@'
aS'@'
aS'@'
aS'@'
aS'@'
aS'@'
aS'@'
aS'@'
aS'@'
aS'@'
aa(lp532
S'X'
aS'X'
aS'X'
aS'X'
aS'X'
aS'0_0'
p533
aS'0_0'
p534
aS'@'
aS'@'
aS'@'
aS'@'
aS'@'
aS'@'
aS'@'
aS'@'
aS'@'
aS'@'
aS'@'
aS'@'
aS'@'
aa(lp535
S'X'
aS'X'
aS'X'
aS'0_0'
p536
aS'0_0'
p537
aS'0_0'
p538
aS'@'
aS'@'
aS'@'
aS'@'
aS'@'
aS'@'
aS'@'
aS'@'
aS'@'
aS'@'
aS'@'
aS'@'
aS'@'
aS'@'
aa(lp539
S'0_1'
p540
aS'0_0'
p541
aS'0_0'
p542
aS'0_0'
p543
aS'0_0'
p544
aS'@'
aS'@'
aS'@'
aS'@'
aS'@'
aS'@'
aS'@'
aS'@'
aS'@'
aS'@'
aS'@'
aS'@'
aS'@'
aS'@'
aS'@'
aa(lp545
S'@'
aS'@'
aS'@'
aS'@'
aS'@'
aS'@'
aS'@'
aS'@'
aS'@'
aS'@'
aS'@'
aS'@'
aS'@'
aS'@'
aS'@'
aS'@'
aS'@'
aS'@'
aS'@'
aS'@'
aa(lp546
S'@'
aS'@'
aS'@'
aS'@'
aS'@'
aS'@'
aS'@'
aS'@'
aS'@'
aS'@'
aS'@'
aS'@'
aS'@'
aS'@'
aS'@'
aS'@'
aS'@'
aS'@'
aS'@'
aS'@'
aa(lp547
S'@'
aS'@'
aS'@'
aS'@'
aS'@'
aS'@'
aS'@'
aS'@'
aS'@'
aS'@'
aS'@'
aS'@'
aS'@'
aS'@'
aS'@'
aS'@'
aS'@'
aS'@'
aS'@'
aS'@'
aa(lp548
S'@'
aS'@'
aS'@'
aS'@'
aS'@'
aS'@'
aS'@'
aS'@'
aS'@'
aS'@'
aS'@'
aS'@'
aS'@'
aS'@'
aS'@'
aS'@'
aS'@'
aS'@'
aS'@'
aS'@'
aa(lp549
S'@'
aS'@'
aS'@'
aS'@'
aS'@'
aS'@'
aS'@'
aS'@'
aS'@'
aS'@'
aS'@'
aS'@'
aS'@'
aS'@'
aS'@'
aS'@'
aS'@'
aS'@'
aS'@'
aS'@'
aa(lp550
S'@'
aS'@'
aS'@'
aS'@'
aS'@'
aS'@'
aS'@'
aS'@'
aS'@'
aS'@'
aS'@'
aS'@'
aS'@'
aS'@'
aS'@'
aS'@'
aS'@'
aS'@'
aS'@'
aS'@'
aa(lp551
S'@'
aS'@'
aS'@'
aS'@'
aS'@'
aS'@'
aS'@'
aS'@'
aS'@'
aS'@'
aS'@'
aS'@'
aS'@'
aS'@'
aS'@'
aS'@'
aS'@'
aS'@'
aS'@'
aS'@'
aa(lp552
S'@'
aS'@'
aS'@'
aS'@'
aS'@'
aS'@'
aS'@'
aS'@'
aS'@'
aS'@'
aS'@'
aS'@'
aS'@'
aS'@'
aS'@'
aS'@'
aS'@'
aS'@'
aS'@'
aS'@'
aa(lp553
S'@'
aS'@'
aS'@'
aS'@'
aS'@'
aS'@'
aS'@'
aS'@'
aS'@'
aS'@'
aS'@'
aS'@'
aS'@'
aS'@'
aS'@'
aS'@'
aS'@'
aS'@'
aS'@'
aS'@'
aa(lp554
S'@'
aS'@'
aS'@'
aS'@'
aS'@'
aS'@'
aS'@'
aS'@'
aS'@'
aS'@'
aS'@'
aS'@'
aS'@'
aS'@'
aS'@'
aS'@'
aS'@'
aS'@'
aS'@'
aS'@'
aa(lp555
S'@'
aS'@'
aS'@'
aS'@'
aS'@'
aS'@'
aS'@'
aS'@'
aS'@'
aS'@'
aS'@'
aS'@'
aS'@'
aS'@'
aS'@'
aS'@'
aS'@'
aS'@'
aS'@'
aS'@'
aa(lp556
S'@'
aS'@'
aS'@'
aS'@'
aS'@'
aS'@'
aS'@'
aS'@'
aS'@'
aS'@'
aS'@'
aS'@'
aS'@'
aS'@'
aS'@'
aS'@'
aS'@'
aS'@'
aS'@'
aS'@'
aa(lp557
S'@'
aS'@'
aS'@'
aS'@'
aS'@'
aS'@'
aS'@'
aS'@'
aS'@'
aS'@'
aS'@'
aS'@'
aS'@'
aS'@'
aS'@'
aS'@'
aS'@'
aS'@'
aS'@'
aS'@'
aa(lp558
S'@'
aS'@'
aS'@'
aS'@'
aS'@'
aS'@'
aS'@'
aS'@'
aS'@'
aS'@'
aS'@'
aS'@'
aS'@'
aS'@'
aS'@'
aS'@'
aS'@'
aS'@'
aS'@'
aS'@'
aa(lp559
S'@'
aS'@'
aS'@'
aS'@'
aS'@'
aS'@'
aS'@'
aS'@'
aS'@'
aS'@'
aS'@'
aS'@'
aS'@'
aS'@'
aS'@'
aS'@'
aS'@'
aS'@'
aS'@'
aS'@'
aasI6
(lp560
(lp561
S'X'
aS'X'
aS'X'
aS'X'
aS'0_2'
p562
aS'0_2'
p563
aS'@'
aS'@'
aS'@'
aS'@'
aS'@'
aS'@'
aS'@'
aS'@'
aS'@'
aS'@'
aS'@'
aS'@'
aS'@'
aS'@'
aa(lp564
S'X'
aS'X'
aS'X'
aS'X'
aS'0_0'
p565
aS'0_0'
p566
aS'@'
aS'@'
aS'@'
aS'@'
aS'@'
aS'@'
aS'@'
aS'@'
aS'@'
aS'@'
aS'@'
aS'@'
aS'@'
aS'@'
aa(lp567
S'X'
aS'0_0'
p568
aS'0_0'
p569
aS'0_0'
p570
aS'0_0'
p571
aS'@'
aS'@'
aS'@'
aS'@'
aS'@'
aS'@'
aS'@'
aS'@'
aS'@'
aS'@'
aS'@'
aS'@'
aS'@'
aS'@'
aS'@'
aa(lp572
S'0_1'
p573
aS'0_0'
p574
aS'0_0'
p575
aS'@'
aS'@'
aS'@'
aS'@'
aS'@'
aS'@'
aS'@'
aS'@'
aS'@'
aS'@'
aS'@'
aS'@'
aS'@'
aS'@'
aS'@'
aS'@'
aS'@'
aa(lp576
S'@'
aS'@'
aS'@'
aS'@'
aS'@'
aS'@'
aS'@'
aS'@'
aS'@'
aS'@'
aS'@'
aS'@'
aS'@'
aS'@'
aS'@'
aS'@'
aS'@'
aS'@'
aS'@'
aS'@'
aa(lp577
S'@'
aS'@'
aS'@'
aS'@'
aS'@'
aS'@'
aS'@'
aS'@'
aS'@'
aS'@'
aS'@'
aS'@'
aS'@'
aS'@'
aS'@'
aS'@'
aS'@'
aS'@'
aS'@'
aS'@'
aa(lp578
S'@'
aS'@'
aS'@'
aS'@'
aS'@'
aS'@'
aS'@'
aS'@'
aS'@'
aS'@'
aS'@'
aS'@'
aS'@'
aS'@'
aS'@'
aS'@'
aS'@'
aS'@'
aS'@'
aS'@'
aa(lp579
S'@'
aS'@'
aS'@'
aS'@'
aS'@'
aS'@'
aS'@'
aS'@'
aS'@'
aS'@'
aS'@'
aS'@'
aS'@'
aS'@'
aS'@'
aS'@'
aS'@'
aS'@'
aS'@'
aS'@'
aa(lp580
S'@'
aS'@'
aS'@'
aS'@'
aS'@'
aS'@'
aS'@'
aS'@'
aS'@'
aS'@'
aS'@'
aS'@'
aS'@'
aS'@'
aS'@'
aS'@'
aS'@'
aS'@'
aS'@'
aS'@'
aa(lp581
S'@'
aS'@'
aS'@'
aS'@'
aS'@'
aS'@'
aS'@'
aS'@'
aS'@'
aS'@'
aS'@'
aS'@'
aS'@'
aS'@'
aS'@'
aS'@'
aS'@'
aS'@'
aS'@'
aS'@'
aa(lp582
S'@'
aS'@'
aS'@'
aS'@'
aS'@'
aS'@'
aS'@'
aS'@'
aS'@'
aS'@'
aS'@'
aS'@'
aS'@'
aS'@'
aS'@'
aS'@'
aS'@'
aS'@'
aS'@'
aS'@'
aa(lp583
S'@'
aS'@'
aS'@'
aS'@'
aS'@'
aS'@'
aS'@'
aS'@'
aS'@'
aS'@'
aS'@'
aS'@'
aS'@'
aS'@'
aS'@'
aS'@'
aS'@'
aS'@'
aS'@'
aS'@'
aa(lp584
S'@'
aS'@'
aS'@'
aS'@'
aS'@'
aS'@'
aS'@'
aS'@'
aS'@'
aS'@'
aS'@'
aS'@'
aS'@'
aS'@'
aS'@'
aS'@'
aS'@'
aS'@'
aS'@'
aS'@'
aa(lp585
S'@'
aS'@'
aS'@'
aS'@'
aS'@'
aS'@'
aS'@'
aS'@'
aS'@'
aS'@'
aS'@'
aS'@'
aS'@'
aS'@'
aS'@'
aS'@'
aS'@'
aS'@'
aS'@'
aS'@'
aa(lp586
S'@'
aS'@'
aS'@'
aS'@'
aS'@'
aS'@'
aS'@'
aS'@'
aS'@'
aS'@'
aS'@'
aS'@'
aS'@'
aS'@'
aS'@'
aS'@'
aS'@'
aS'@'
aS'@'
aS'@'
aa(lp587
S'@'
aS'@'
aS'@'
aS'@'
aS'@'
aS'@'
aS'@'
aS'@'
aS'@'
aS'@'
aS'@'
aS'@'
aS'@'
aS'@'
aS'@'
aS'@'
aS'@'
aS'@'
aS'@'
aS'@'
aa(lp588
S'@'
aS'@'
aS'@'
aS'@'
aS'@'
aS'@'
aS'@'
aS'@'
aS'@'
aS'@'
aS'@'
aS'@'
aS'@'
aS'@'
aS'@'
aS'@'
aS'@'
aS'@'
aS'@'
aS'@'
aa(lp589
S'@'
aS'@'
aS'@'
aS'@'
aS'@'
aS'@'
aS'@'
aS'@'
aS'@'
aS'@'
aS'@'
aS'@'
aS'@'
aS'@'
aS'@'
aS'@'
aS'@'
aS'@'
aS'@'
aS'@'
aa(lp590
S'@'
aS'@'
aS'@'
aS'@'
aS'@'
aS'@'
aS'@'
aS'@'
aS'@'
aS'@'
aS'@'
aS'@'
aS'@'
aS'@'
aS'@'
aS'@'
aS'@'
aS'@'
aS'@'
aS'@'
aa(lp591
S'@'
aS'@'
aS'@'
aS'@'
aS'@'
aS'@'
aS'@'
aS'@'
aS'@'
aS'@'
aS'@'
aS'@'
aS'@'
aS'@'
aS'@'
aS'@'
aS'@'
aS'@'
aS'@'
aS'@'
aasI7
(lp592
(lp593
S'X'
aS'0_2'
p594
aS'0_2'
p595
aS'0_2'
p596
aS'@'
aS'@'
aS'@'
aS'@'
aS'@'
aS'@'
aS'@'
aS'@'
aS'@'
aS'@'
aS'@'
aS'@'
aS'@'
aS'@'
aS'@'
aS'@'
aa(lp597
S'0_1'
p598
aS'0_0'
p599
aS'0_0'
p600
aS'0_0'
p601
aS'@'
aS'@'
aS'@'
aS'@'
aS'@'
aS'@'
aS'@'
aS'@'
aS'@'
aS'@'
aS'@'
aS'@'
aS'@'
aS'@'
aS'@'
aS'@'
aa(lp602
S'0_1'
p603
aS'@'
aS'@'
aS'@'
aS'@'
aS'@'
aS'@'
aS'@'
aS'@'
aS'@'
aS'@'
aS'@'
aS'@'
aS'@'
aS'@'
aS'@'
aS'@'
aS'@'
aS'@'
aS'@'
aa(lp604
S'@'
aS'@'
aS'@'
aS'@'
aS'@'
aS'@'
aS'@'
aS'@'
aS'@'
aS'@'
aS'@'
aS'@'
aS'@'
aS'@'
aS'@'
aS'@'
aS'@'
aS'@'
aS'@'
aS'@'
aa(lp605
S'@'
aS'@'
aS'@'
aS'@'
aS'@'
aS'@'
aS'@'
aS'@'
aS'@'
aS'@'
aS'@'
aS'@'
aS'@'
aS'@'
aS'@'
aS'@'
aS'@'
aS'@'
aS'@'
aS'@'
aa(lp606
S'@'
aS'@'
aS'@'
aS'@'
aS'@'
aS'@'
aS'@'
aS'@'
aS'@'
aS'@'
aS'@'
aS'@'
aS'@'
aS'@'
aS'@'
aS'@'
aS'@'
aS'@'
aS'@'
aS'@'
aa(lp607
S'@'
aS'@'
aS'@'
aS'@'
aS'@'
aS'@'
aS'@'
aS'@'
aS'@'
aS'@'
aS'@'
aS'@'
aS'@'
aS'@'
aS'@'
aS'@'
aS'@'
aS'@'
aS'@'
aS'@'
aa(lp608
S'@'
aS'@'
aS'@'
aS'@'
aS'@'
aS'@'
aS'@'
aS'@'
aS'@'
aS'@'
aS'@'
aS'@'
aS'@'
aS'@'
aS'@'
aS'@'
aS'@'
aS'@'
aS'@'
aS'@'
aa(lp609
S'@'
aS'@'
aS'@'
aS'@'
aS'@'
aS'@'
aS'@'
aS'@'
aS'@'
aS'@'
aS'@'
aS'@'
aS'@'
aS'@'
aS'@'
aS'@'
aS'@'
aS'@'
aS'@'
aS'@'
aa(lp610
S'@'
aS'@'
aS'@'
aS'@'
aS'@'
aS'@'
aS'@'
aS'@'
aS'@'
aS'@'
aS'@'
aS'@'
aS'@'
aS'@'
aS'@'
aS'@'
aS'@'
aS'@'
aS'@'
aS'@'
aa(lp611
S'@'
aS'@'
aS'@'
aS'@'
aS'@'
aS'@'
aS'@'
aS'@'
aS'@'
aS'@'
aS'@'
aS'@'
aS'@'
aS'@'
aS'@'
aS'@'
aS'@'
aS'@'
aS'@'
aS'@'
aa(lp612
S'@'
aS'@'
aS'@'
aS'@'
aS'@'
aS'@'
aS'@'
aS'@'
aS'@'
aS'@'
aS'@'
aS'@'
aS'@'
aS'@'
aS'@'
aS'@'
aS'@'
aS'@'
aS'@'
aS'@'
aa(lp613
S'@'
aS'@'
aS'@'
aS'@'
aS'@'
aS'@'
aS'@'
aS'@'
aS'@'
aS'@'
aS'@'
aS'@'
aS'@'
aS'@'
aS'@'
aS'@'
aS'@'
aS'@'
aS'@'
aS'@'
aa(lp614
S'@'
aS'@'
aS'@'
aS'@'
aS'@'
aS'@'
aS'@'
aS'@'
aS'@'
aS'@'
aS'@'
aS'@'
aS'@'
aS'@'
aS'@'
aS'@'
aS'@'
aS'@'
aS'@'
aS'@'
aa(lp615
S'@'
aS'@'
aS'@'
aS'@'
aS'@'
aS'@'
aS'@'
aS'@'
aS'@'
aS'@'
aS'@'
aS'@'
aS'@'
aS'@'
aS'@'
aS'@'
aS'@'
aS'@'
aS'@'
aS'@'
aa(lp616
S'@'
aS'@'
aS'@'
aS'@'
aS'@'
aS'@'
aS'@'
aS'@'
aS'@'
aS'@'
aS'@'
aS'@'
aS'@'
aS'@'
aS'@'
aS'@'
aS'@'
aS'@'
aS'@'
aS'@'
aa(lp617
S'@'
aS'@'
aS'@'
aS'@'
aS'@'
aS'@'
aS'@'
aS'@'
aS'@'
aS'@'
aS'@'
aS'@'
aS'@'
aS'@'
aS'@'
aS'@'
aS'@'
aS'@'
aS'@'
aS'@'
aa(lp618
S'@'
aS'@'
aS'@'
aS'@'
aS'@'
aS'@'
aS'@'
aS'@'
aS'@'
aS'@'
aS'@'
aS'@'
aS'@'
aS'@'
aS'@'
aS'@'
aS'@'
aS'@'
aS'@'
aS'@'
aa(lp619
S'@'
aS'@'
aS'@'
aS'@'
aS'@'
aS'@'
aS'@'
aS'@'
aS'@'
aS'@'
aS'@'
aS'@'
aS'@'
aS'@'
aS'@'
aS'@'
aS'@'
aS'@'
aS'@'
aS'@'
aa(lp620
S'@'
aS'@'
aS'@'
aS'@'
aS'@'
aS'@'
aS'@'
aS'@'
aS'@'
aS'@'
aS'@'
aS'@'
aS'@'
aS'@'
aS'@'
aS'@'
aS'@'
aS'@'
aS'@'
aS'@'
aasI8
(lp621
(lp622
S'0_3'
p623
aS'@'
aS'@'
aS'@'
aS'@'
aS'@'
aS'@'
aS'@'
aS'@'
aS'@'
aS'@'
aS'@'
aS'@'
aS'@'
aS'@'
aS'@'
aS'@'
aS'@'
aS'@'
aS'@'
aa(lp624
S'@'
aS'@'
aS'@'
aS'@'
aS'@'
aS'@'
aS'@'
aS'@'
aS'@'
aS'@'
aS'@'
aS'@'
aS'@'
aS'@'
aS'@'
aS'@'
aS'@'
aS'@'
aS'@'
aS'@'
aa(lp625
S'@'
aS'@'
aS'@'
aS'@'
aS'@'
aS'@'
aS'@'
aS'@'
aS'@'
aS'@'
aS'@'
aS'@'
aS'@'
aS'@'
aS'@'
aS'@'
aS'@'
aS'@'
aS'@'
aS'@'
aa(lp626
S'@'
aS'@'
aS'@'
aS'@'
aS'@'
aS'@'
aS'@'
aS'@'
aS'@'
aS'@'
aS'@'
aS'@'
aS'@'
aS'@'
aS'@'
aS'@'
aS'@'
aS'@'
aS'@'
aS'@'
aa(lp627
S'@'
aS'@'
aS'@'
aS'@'
aS'@'
aS'@'
aS'@'
aS'@'
aS'@'
aS'@'
aS'@'
aS'@'
aS'@'
aS'@'
aS'@'
aS'@'
aS'@'
aS'@'
aS'@'
aS'@'
aa(lp628
S'@'
aS'@'
aS'@'
aS'@'
aS'@'
aS'@'
aS'@'
aS'@'
aS'@'
aS'@'
aS'@'
aS'@'
aS'@'
aS'@'
aS'@'
aS'@'
aS'@'
aS'@'
aS'@'
aS'@'
aa(lp629
S'@'
aS'@'
aS'@'
aS'@'
aS'@'
aS'@'
aS'@'
aS'@'
aS'@'
aS'@'
aS'@'
aS'@'
aS'@'
aS'@'
aS'@'
aS'@'
aS'@'
aS'@'
aS'@'
aS'@'
aa(lp630
S'@'
aS'@'
aS'@'
aS'@'
aS'@'
aS'@'
aS'@'
aS'@'
aS'@'
aS'@'
aS'@'
aS'@'
aS'@'
aS'@'
aS'@'
aS'@'
aS'@'
aS'@'
aS'@'
aS'@'
aa(lp631
S'@'
aS'@'
aS'@'
aS'@'
aS'@'
aS'@'
aS'@'
aS'@'
aS'@'
aS'@'
aS'@'
aS'@'
aS'@'
aS'@'
aS'@'
aS'@'
aS'@'
aS'@'
aS'@'
aS'@'
aa(lp632
S'@'
aS'@'
aS'@'
aS'@'
aS'@'
aS'@'
aS'@'
aS'@'
aS'@'
aS'@'
aS'@'
aS'@'
aS'@'
aS'@'
aS'@'
aS'@'
aS'@'
aS'@'
aS'@'
aS'@'
aa(lp633
S'@'
aS'@'
aS'@'
aS'@'
aS'@'
aS'@'
aS'@'
aS'@'
aS'@'
aS'@'
aS'@'
aS'@'
aS'@'
aS'@'
aS'@'
aS'@'
aS'@'
aS'@'
aS'@'
aS'@'
aa(lp634
S'@'
aS'@'
aS'@'
aS'@'
aS'@'
aS'@'
aS'@'
aS'@'
aS'@'
aS'@'
aS'@'
aS'@'
aS'@'
aS'@'
aS'@'
aS'@'
aS'@'
aS'@'
aS'@'
aS'@'
aa(lp635
S'@'
aS'@'
aS'@'
aS'@'
aS'@'
aS'@'
aS'@'
aS'@'
aS'@'
aS'@'
aS'@'
aS'@'
aS'@'
aS'@'
aS'@'
aS'@'
aS'@'
aS'@'
aS'@'
aS'@'
aa(lp636
S'@'
aS'@'
aS'@'
aS'@'
aS'@'
aS'@'
aS'@'
aS'@'
aS'@'
aS'@'
aS'@'
aS'@'
aS'@'
aS'@'
aS'@'
aS'@'
aS'@'
aS'@'
aS'@'
aS'@'
aa(lp637
S'@'
aS'@'
aS'@'
aS'@'
aS'@'
aS'@'
aS'@'
aS'@'
aS'@'
aS'@'
aS'@'
aS'@'
aS'@'
aS'@'
aS'@'
aS'@'
aS'@'
aS'@'
aS'@'
aS'@'
aa(lp638
S'@'
aS'@'
aS'@'
aS'@'
aS'@'
aS'@'
aS'@'
aS'@'
aS'@'
aS'@'
aS'@'
aS'@'
aS'@'
aS'@'
aS'@'
aS'@'
aS'@'
aS'@'
aS'@'
aS'@'
aa(lp639
S'@'
aS'@'
aS'@'
aS'@'
aS'@'
aS'@'
aS'@'
aS'@'
aS'@'
aS'@'
aS'@'
aS'@'
aS'@'
aS'@'
aS'@'
aS'@'
aS'@'
aS'@'
aS'@'
aS'@'
aa(lp640
S'@'
aS'@'
aS'@'
aS'@'
aS'@'
aS'@'
aS'@'
aS'@'
aS'@'
aS'@'
aS'@'
aS'@'
aS'@'
aS'@'
aS'@'
aS'@'
aS'@'
aS'@'
aS'@'
aS'@'
aa(lp641
S'@'
aS'@'
aS'@'
aS'@'
aS'@'
aS'@'
aS'@'
aS'@'
aS'@'
aS'@'
aS'@'
aS'@'
aS'@'
aS'@'
aS'@'
aS'@'
aS'@'
aS'@'
aS'@'
aS'@'
aa(lp642
S'@'
aS'@'
aS'@'
aS'@'
aS'@'
aS'@'
aS'@'
aS'@'
aS'@'
aS'@'
aS'@'
aS'@'
aS'@'
aS'@'
aS'@'
aS'@'
aS'@'
aS'@'
aS'@'
aS'@'
aasI9
(lp643
(lp644
S'@'
aS'@'
aS'@'
aS'@'
aS'@'
aS'@'
aS'@'
aS'@'
aS'@'
aS'@'
aS'@'
aS'@'
aS'@'
aS'@'
aS'@'
aS'@'
aS'@'
aS'@'
aS'@'
aS'@'
aa(lp645
S'@'
aS'@'
aS'@'
aS'@'
aS'@'
aS'@'
aS'@'
aS'@'
aS'@'
aS'@'
aS'@'
aS'@'
aS'@'
aS'@'
aS'@'
aS'@'
aS'@'
aS'@'
aS'@'
aS'@'
aa(lp646
S'@'
aS'@'
aS'@'
aS'@'
aS'@'
aS'@'
aS'@'
aS'@'
aS'@'
aS'@'
aS'@'
aS'@'
aS'@'
aS'@'
aS'@'
aS'@'
aS'@'
aS'@'
aS'@'
aS'@'
aa(lp647
S'@'
aS'@'
aS'@'
aS'@'
aS'@'
aS'@'
aS'@'
aS'@'
aS'@'
aS'@'
aS'@'
aS'@'
aS'@'
aS'@'
aS'@'
aS'@'
aS'@'
aS'@'
aS'@'
aS'@'
aa(lp648
S'@'
aS'@'
aS'@'
aS'@'
aS'@'
aS'@'
aS'@'
aS'@'
aS'@'
aS'@'
aS'@'
aS'@'
aS'@'
aS'@'
aS'@'
aS'@'
aS'@'
aS'@'
aS'@'
aS'@'
aa(lp649
S'@'
aS'@'
aS'@'
aS'@'
aS'@'
aS'@'
aS'@'
aS'@'
aS'@'
aS'@'
aS'@'
aS'@'
aS'@'
aS'@'
aS'@'
aS'@'
aS'@'
aS'@'
aS'@'
aS'@'
aa(lp650
S'@'
aS'@'
aS'@'
aS'@'
aS'@'
aS'@'
aS'@'
aS'@'
aS'@'
aS'@'
aS'@'
aS'@'
aS'@'
aS'@'
aS'@'
aS'@'
aS'@'
aS'@'
aS'@'
aS'@'
aa(lp651
S'@'
aS'@'
aS'@'
aS'@'
aS'@'
aS'@'
aS'@'
aS'@'
aS'@'
aS'@'
aS'@'
aS'@'
aS'@'
aS'@'
aS'@'
aS'@'
aS'@'
aS'@'
aS'@'
aS'@'
aa(lp652
S'@'
aS'@'
aS'@'
aS'@'
aS'@'
aS'@'
aS'@'
aS'@'
aS'@'
aS'@'
aS'@'
aS'@'
aS'@'
aS'@'
aS'@'
aS'@'
aS'@'
aS'@'
aS'@'
aS'@'
aa(lp653
S'@'
aS'@'
aS'@'
aS'@'
aS'@'
aS'@'
aS'@'
aS'@'
aS'@'
aS'@'
aS'@'
aS'@'
aS'@'
aS'@'
aS'@'
aS'@'
aS'@'
aS'@'
aS'@'
aS'@'
aa(lp654
S'@'
aS'@'
aS'@'
aS'@'
aS'@'
aS'@'
aS'@'
aS'@'
aS'@'
aS'@'
aS'@'
aS'@'
aS'@'
aS'@'
aS'@'
aS'@'
aS'@'
aS'@'
aS'@'
aS'@'
aa(lp655
S'@'
aS'@'
aS'@'
aS'@'
aS'@'
aS'@'
aS'@'
aS'@'
aS'@'
aS'@'
aS'@'
aS'@'
aS'@'
aS'@'
aS'@'
aS'@'
aS'@'
aS'@'
aS'@'
aS'@'
aa(lp656
S'@'
aS'@'
aS'@'
aS'@'
aS'@'
aS'@'
aS'@'
aS'@'
aS'@'
aS'@'
aS'@'
aS'@'
aS'@'
aS'@'
aS'@'
aS'@'
aS'@'
aS'@'
aS'@'
aS'@'
aa(lp657
S'@'
aS'@'
aS'@'
aS'@'
aS'@'
aS'@'
aS'@'
aS'@'
aS'@'
aS'@'
aS'@'
aS'@'
aS'@'
aS'@'
aS'@'
aS'@'
aS'@'
aS'@'
aS'@'
aS'@'
aa(lp658
S'@'
aS'@'
aS'@'
aS'@'
aS'@'
aS'@'
aS'@'
aS'@'
aS'@'
aS'@'
aS'@'
aS'@'
aS'@'
aS'@'
aS'@'
aS'@'
aS'@'
aS'@'
aS'@'
aS'@'
aa(lp659
S'@'
aS'@'
aS'@'
aS'@'
aS'@'
aS'@'
aS'@'
aS'@'
aS'@'
aS'@'
aS'@'
aS'@'
aS'@'
aS'@'
aS'@'
aS'@'
aS'@'
aS'@'
aS'@'
aS'@'
aa(lp660
S'@'
aS'@'
aS'@'
aS'@'
aS'@'
aS'@'
aS'@'
aS'@'
aS'@'
aS'@'
aS'@'
aS'@'
aS'@'
aS'@'
aS'@'
aS'@'
aS'@'
aS'@'
aS'@'
aS'@'
aa(lp661
S'@'
aS'@'
aS'@'
aS'@'
aS'@'
aS'@'
aS'@'
aS'@'
aS'@'
aS'@'
aS'@'
aS'@'
aS'@'
aS'@'
aS'@'
aS'@'
aS'@'
aS'@'
aS'@'
aS'@'
aa(lp662
S'@'
aS'@'
aS'@'
aS'@'
aS'@'
aS'@'
aS'@'
aS'@'
aS'@'
aS'@'
aS'@'
aS'@'
aS'@'
aS'@'
aS'@'
aS'@'
aS'@'
aS'@'
aS'@'
aS'@'
aa(lp663
S'@'
aS'@'
aS'@'
aS'@'
aS'@'
aS'@'
aS'@'
aS'@'
aS'@'
aS'@'
aS'@'
aS'@'
aS'@'
aS'@'
aS'@'
aS'@'
aS'@'
aS'@'
aS'@'
aS'@'
aasI10
(lp664
(lp665
S'@'
aS'@'
aS'@'
aS'@'
aS'@'
aS'@'
aS'@'
aS'@'
aS'@'
aS'@'
aS'@'
aS'@'
aS'@'
aS'@'
aS'@'
aS'@'
aS'@'
aS'@'
aS'@'
aS'@'
aa(lp666
S'@'
aS'@'
aS'@'
aS'@'
aS'@'
aS'@'
aS'@'
aS'@'
aS'@'
aS'@'
aS'@'
aS'@'
aS'@'
aS'@'
aS'@'
aS'@'
aS'@'
aS'@'
aS'@'
aS'@'
aa(lp667
S'@'
aS'@'
aS'@'
aS'@'
aS'@'
aS'@'
aS'@'
aS'@'
aS'@'
aS'@'
aS'@'
aS'@'
aS'@'
aS'@'
aS'@'
aS'@'
aS'@'
aS'@'
aS'@'
aS'@'
aa(lp668
S'@'
aS'@'
aS'@'
aS'@'
aS'@'
aS'@'
aS'@'
aS'@'
aS'@'
aS'@'
aS'@'
aS'@'
aS'@'
aS'@'
aS'@'
aS'@'
aS'@'
aS'@'
aS'@'
aS'@'
aa(lp669
S'@'
aS'@'
aS'@'
aS'@'
aS'@'
aS'@'
aS'@'
aS'@'
aS'@'
aS'@'
aS'@'
aS'@'
aS'@'
aS'@'
aS'@'
aS'@'
aS'@'
aS'@'
aS'@'
aS'@'
aa(lp670
S'@'
aS'@'
aS'@'
aS'@'
aS'@'
aS'@'
aS'@'
aS'@'
aS'@'
aS'@'
aS'@'
aS'@'
aS'@'
aS'@'
aS'@'
aS'@'
aS'@'
aS'@'
aS'@'
aS'@'
aa(lp671
S'@'
aS'@'
aS'@'
aS'@'
aS'@'
aS'@'
aS'@'
aS'@'
aS'@'
aS'@'
aS'@'
aS'@'
aS'@'
aS'@'
aS'@'
aS'@'
aS'@'
aS'@'
aS'@'
aS'@'
aa(lp672
S'@'
aS'@'
aS'@'
aS'@'
aS'@'
aS'@'
aS'@'
aS'@'
aS'@'
aS'@'
aS'@'
aS'@'
aS'@'
aS'@'
aS'@'
aS'@'
aS'@'
aS'@'
aS'@'
aS'@'
aa(lp673
S'@'
aS'@'
aS'@'
aS'@'
aS'@'
aS'@'
aS'@'
aS'@'
aS'@'
aS'@'
aS'@'
aS'@'
aS'@'
aS'@'
aS'@'
aS'@'
aS'@'
aS'@'
aS'@'
aS'@'
aa(lp674
S'@'
aS'@'
aS'@'
aS'@'
aS'@'
aS'@'
aS'@'
aS'@'
aS'@'
aS'@'
aS'@'
aS'@'
aS'@'
aS'@'
aS'@'
aS'@'
aS'@'
aS'@'
aS'@'
aS'@'
aa(lp675
S'@'
aS'@'
aS'@'
aS'@'
aS'@'
aS'@'
aS'@'
aS'@'
aS'@'
aS'@'
aS'@'
aS'@'
aS'@'
aS'@'
aS'@'
aS'@'
aS'@'
aS'@'
aS'@'
aS'@'
aa(lp676
S'@'
aS'@'
aS'@'
aS'@'
aS'@'
aS'@'
aS'@'
aS'@'
aS'@'
aS'@'
aS'@'
aS'@'
aS'@'
aS'@'
aS'@'
aS'@'
aS'@'
aS'@'
aS'@'
aS'@'
aa(lp677
S'@'
aS'@'
aS'@'
aS'@'
aS'@'
aS'@'
aS'@'
aS'@'
aS'@'
aS'@'
aS'@'
aS'@'
aS'@'
aS'@'
aS'@'
aS'@'
aS'@'
aS'@'
aS'@'
aS'@'
aa(lp678
S'@'
aS'@'
aS'@'
aS'@'
aS'@'
aS'@'
aS'@'
aS'@'
aS'@'
aS'@'
aS'@'
aS'@'
aS'@'
aS'@'
aS'@'
aS'@'
aS'@'
aS'@'
aS'@'
aS'@'
aa(lp679
S'@'
aS'@'
aS'@'
aS'@'
aS'@'
aS'@'
aS'@'
aS'@'
aS'@'
aS'@'
aS'@'
aS'@'
aS'@'
aS'@'
aS'@'
aS'@'
aS'@'
aS'@'
aS'@'
aS'@'
aa(lp680
S'@'
aS'@'
aS'@'
aS'@'
aS'@'
aS'@'
aS'@'
aS'@'
aS'@'
aS'@'
aS'@'
aS'@'
aS'@'
aS'@'
aS'@'
aS'@'
aS'@'
aS'@'
aS'@'
aS'@'
aa(lp681
S'@'
aS'@'
aS'@'
aS'@'
aS'@'
aS'@'
aS'@'
aS'@'
aS'@'
aS'@'
aS'@'
aS'@'
aS'@'
aS'@'
aS'@'
aS'@'
aS'@'
aS'@'
aS'@'
aS'@'
aa(lp682
S'@'
aS'@'
aS'@'
aS'@'
aS'@'
aS'@'
aS'@'
aS'@'
aS'@'
aS'@'
aS'@'
aS'@'
aS'@'
aS'@'
aS'@'
aS'@'
aS'@'
aS'@'
aS'@'
aS'@'
aa(lp683
S'@'
aS'@'
aS'@'
aS'@'
aS'@'
aS'@'
aS'@'
aS'@'
aS'@'
aS'@'
aS'@'
aS'@'
aS'@'
aS'@'
aS'@'
aS'@'
aS'@'
aS'@'
aS'@'
aS'@'
aa(lp684
S'@'
aS'@'
aS'@'
aS'@'
aS'@'
aS'@'
aS'@'
aS'@'
aS'@'
aS'@'
aS'@'
aS'@'
aS'@'
aS'@'
aS'@'
aS'@'
aS'@'
aS'@'
aS'@'
aS'@'
aasI11
(lp685
(lp686
S'@'
aS'@'
aS'@'
aS'@'
aS'@'
aS'@'
aS'@'
aS'@'
aS'@'
aS'@'
aS'@'
aS'@'
aS'@'
aS'@'
aS'@'
aS'@'
aS'@'
aS'@'
aS'@'
aS'@'
aa(lp687
S'@'
aS'@'
aS'@'
aS'@'
aS'@'
aS'@'
aS'@'
aS'@'
aS'@'
aS'@'
aS'@'
aS'@'
aS'@'
aS'@'
aS'@'
aS'@'
aS'@'
aS'@'
aS'@'
aS'@'
aa(lp688
S'@'
aS'@'
aS'@'
aS'@'
aS'@'
aS'@'
aS'@'
aS'@'
aS'@'
aS'@'
aS'@'
aS'@'
aS'@'
aS'@'
aS'@'
aS'@'
aS'@'
aS'@'
aS'@'
aS'@'
aa(lp689
S'@'
aS'@'
aS'@'
aS'@'
aS'@'
aS'@'
aS'@'
aS'@'
aS'@'
aS'@'
aS'@'
aS'@'
aS'@'
aS'@'
aS'@'
aS'@'
aS'@'
aS'@'
aS'@'
aS'@'
aa(lp690
S'@'
aS'@'
aS'@'
aS'@'
aS'@'
aS'@'
aS'@'
aS'@'
aS'@'
aS'@'
aS'@'
aS'@'
aS'@'
aS'@'
aS'@'
aS'@'
aS'@'
aS'@'
aS'@'
aS'@'
aa(lp691
S'@'
aS'@'
aS'@'
aS'@'
aS'@'
aS'@'
aS'@'
aS'@'
aS'@'
aS'@'
aS'@'
aS'@'
aS'@'
aS'@'
aS'@'
aS'@'
aS'@'
aS'@'
aS'@'
aS'@'
aa(lp692
S'@'
aS'@'
aS'@'
aS'@'
aS'@'
aS'@'
aS'@'
aS'@'
aS'@'
aS'@'
aS'@'
aS'@'
aS'@'
aS'@'
aS'@'
aS'@'
aS'@'
aS'@'
aS'@'
aS'@'
aa(lp693
S'@'
aS'@'
aS'@'
aS'@'
aS'@'
aS'@'
aS'@'
aS'@'
aS'@'
aS'@'
aS'@'
aS'@'
aS'@'
aS'@'
aS'@'
aS'@'
aS'@'
aS'@'
aS'@'
aS'@'
aa(lp694
S'@'
aS'@'
aS'@'
aS'@'
aS'@'
aS'@'
aS'@'
aS'@'
aS'@'
aS'@'
aS'@'
aS'@'
aS'@'
aS'@'
aS'@'
aS'@'
aS'@'
aS'@'
aS'@'
aS'@'
aa(lp695
S'@'
aS'@'
aS'@'
aS'@'
aS'@'
aS'@'
aS'@'
aS'@'
aS'@'
aS'@'
aS'@'
aS'@'
aS'@'
aS'@'
aS'@'
aS'@'
aS'@'
aS'@'
aS'@'
aS'@'
aa(lp696
S'@'
aS'@'
aS'@'
aS'@'
aS'@'
aS'@'
aS'@'
aS'@'
aS'@'
aS'@'
aS'@'
aS'@'
aS'@'
aS'@'
aS'@'
aS'@'
aS'@'
aS'@'
aS'@'
aS'@'
aa(lp697
S'@'
aS'@'
aS'@'
aS'@'
aS'@'
aS'@'
aS'@'
aS'@'
aS'@'
aS'@'
aS'@'
aS'@'
aS'@'
aS'@'
aS'@'
aS'@'
aS'@'
aS'@'
aS'@'
aS'@'
aa(lp698
S'@'
aS'@'
aS'@'
aS'@'
aS'@'
aS'@'
aS'@'
aS'@'
aS'@'
aS'@'
aS'@'
aS'@'
aS'@'
aS'@'
aS'@'
aS'@'
aS'@'
aS'@'
aS'@'
aS'@'
aa(lp699
S'@'
aS'@'
aS'@'
aS'@'
aS'@'
aS'@'
aS'@'
aS'@'
aS'@'
aS'@'
aS'@'
aS'@'
aS'@'
aS'@'
aS'@'
aS'@'
aS'@'
aS'@'
aS'@'
aS'@'
aa(lp700
S'@'
aS'@'
aS'@'
aS'@'
aS'@'
aS'@'
aS'@'
aS'@'
aS'@'
aS'@'
aS'@'
aS'@'
aS'@'
aS'@'
aS'@'
aS'@'
aS'@'
aS'@'
aS'@'
aS'@'
aa(lp701
S'@'
aS'@'
aS'@'
aS'@'
aS'@'
aS'@'
aS'@'
aS'@'
aS'@'
aS'@'
aS'@'
aS'@'
aS'@'
aS'@'
aS'@'
aS'@'
aS'@'
aS'@'
aS'@'
aS'@'
aa(lp702
S'@'
aS'@'
aS'@'
aS'@'
aS'@'
aS'@'
aS'@'
aS'@'
aS'@'
aS'@'
aS'@'
aS'@'
aS'@'
aS'@'
aS'@'
aS'@'
aS'@'
aS'@'
aS'@'
aS'@'
aa(lp703
S'@'
aS'@'
aS'@'
aS'@'
aS'@'
aS'@'
aS'@'
aS'@'
aS'@'
aS'@'
aS'@'
aS'@'
aS'@'
aS'@'
aS'@'
aS'@'
aS'@'
aS'@'
aS'@'
aS'@'
aa(lp704
S'@'
aS'@'
aS'@'
aS'@'
aS'@'
aS'@'
aS'@'
aS'@'
aS'@'
aS'@'
aS'@'
aS'@'
aS'@'
aS'@'
aS'@'
aS'@'
aS'@'
aS'@'
aS'@'
aS'@'
aa(lp705
S'@'
aS'@'
aS'@'
aS'@'
aS'@'
aS'@'
aS'@'
aS'@'
aS'@'
aS'@'
aS'@'
aS'@'
aS'@'
aS'@'
aS'@'
aS'@'
aS'@'
aS'@'
aS'@'
aS'@'
aasI12
(lp706
(lp707
S'@'
aS'@'
aS'@'
aS'@'
aS'@'
aS'@'
aS'@'
aS'@'
aS'@'
aS'@'
aS'@'
aS'@'
aS'@'
aS'@'
aS'@'
aS'@'
aS'@'
aS'@'
aS'@'
aS'@'
aa(lp708
S'@'
aS'@'
aS'@'
aS'@'
aS'@'
aS'@'
aS'@'
aS'@'
aS'@'
aS'@'
aS'@'
aS'@'
aS'@'
aS'@'
aS'@'
aS'@'
aS'@'
aS'@'
aS'@'
aS'@'
aa(lp709
S'@'
aS'@'
aS'@'
aS'@'
aS'@'
aS'@'
aS'@'
aS'@'
aS'@'
aS'@'
aS'@'
aS'@'
aS'@'
aS'@'
aS'@'
aS'@'
aS'@'
aS'@'
aS'@'
aS'@'
aa(lp710
S'@'
aS'@'
aS'@'
aS'@'
aS'@'
aS'@'
aS'@'
aS'@'
aS'@'
aS'@'
aS'@'
aS'@'
aS'@'
aS'@'
aS'@'
aS'@'
aS'@'
aS'@'
aS'@'
aS'@'
aa(lp711
S'@'
aS'@'
aS'@'
aS'@'
aS'@'
aS'@'
aS'@'
aS'@'
aS'@'
aS'@'
aS'@'
aS'@'
aS'@'
aS'@'
aS'@'
aS'@'
aS'@'
aS'@'
aS'@'
aS'@'
aa(lp712
S'@'
aS'@'
aS'@'
aS'@'
aS'@'
aS'@'
aS'@'
aS'@'
aS'@'
aS'@'
aS'@'
aS'@'
aS'@'
aS'@'
aS'@'
aS'@'
aS'@'
aS'@'
aS'@'
aS'@'
aa(lp713
S'@'
aS'@'
aS'@'
aS'@'
aS'@'
aS'@'
aS'@'
aS'@'
aS'@'
aS'@'
aS'@'
aS'@'
aS'@'
aS'@'
aS'@'
aS'@'
aS'@'
aS'@'
aS'@'
aS'@'
aa(lp714
S'@'
aS'@'
aS'@'
aS'@'
aS'@'
aS'@'
aS'@'
aS'@'
aS'@'
aS'@'
aS'@'
aS'@'
aS'@'
aS'@'
aS'@'
aS'@'
aS'@'
aS'@'
aS'@'
aS'@'
aa(lp715
S'@'
aS'@'
aS'@'
aS'@'
aS'@'
aS'@'
aS'@'
aS'@'
aS'@'
aS'@'
aS'@'
aS'@'
aS'@'
aS'@'
aS'@'
aS'@'
aS'@'
aS'@'
aS'@'
aS'@'
aa(lp716
S'@'
aS'@'
aS'@'
aS'@'
aS'@'
aS'@'
aS'@'
aS'@'
aS'@'
aS'@'
aS'@'
aS'@'
aS'@'
aS'@'
aS'@'
aS'@'
aS'@'
aS'@'
aS'@'
aS'@'
aa(lp717
S'@'
aS'@'
aS'@'
aS'@'
aS'@'
aS'@'
aS'@'
aS'@'
aS'@'
aS'@'
aS'@'
aS'@'
aS'@'
aS'@'
aS'@'
aS'@'
aS'@'
aS'@'
aS'@'
aS'@'
aa(lp718
S'@'
aS'@'
aS'@'
aS'@'
aS'@'
aS'@'
aS'@'
aS'@'
aS'@'
aS'@'
aS'@'
aS'@'
aS'@'
aS'@'
aS'@'
aS'@'
aS'@'
aS'@'
aS'@'
aS'@'
aa(lp719
S'@'
aS'@'
aS'@'
aS'@'
aS'@'
aS'@'
aS'@'
aS'@'
aS'@'
aS'@'
aS'@'
aS'@'
aS'@'
aS'@'
aS'@'
aS'@'
aS'@'
aS'@'
aS'@'
aS'@'
aa(lp720
S'@'
aS'@'
aS'@'
aS'@'
aS'@'
aS'@'
aS'@'
aS'@'
aS'@'
aS'@'
aS'@'
aS'@'
aS'@'
aS'@'
aS'@'
aS'@'
aS'@'
aS'@'
aS'@'
aS'@'
aa(lp721
S'@'
aS'@'
aS'@'
aS'@'
aS'@'
aS'@'
aS'@'
aS'@'
aS'@'
aS'@'
aS'@'
aS'@'
aS'@'
aS'@'
aS'@'
aS'@'
aS'@'
aS'@'
aS'@'
aS'@'
aa(lp722
S'@'
aS'@'
aS'@'
aS'@'
aS'@'
aS'@'
aS'@'
aS'@'
aS'@'
aS'@'
aS'@'
aS'@'
aS'@'
aS'@'
aS'@'
aS'@'
aS'@'
aS'@'
aS'@'
aS'@'
aa(lp723
S'@'
aS'@'
aS'@'
aS'@'
aS'@'
aS'@'
aS'@'
aS'@'
aS'@'
aS'@'
aS'@'
aS'@'
aS'@'
aS'@'
aS'@'
aS'@'
aS'@'
aS'@'
aS'@'
aS'@'
aa(lp724
S'@'
aS'@'
aS'@'
aS'@'
aS'@'
aS'@'
aS'@'
aS'@'
aS'@'
aS'@'
aS'@'
aS'@'
aS'@'
aS'@'
aS'@'
aS'@'
aS'@'
aS'@'
aS'@'
aS'@'
aa(lp725
S'@'
aS'@'
aS'@'
aS'@'
aS'@'
aS'@'
aS'@'
aS'@'
aS'@'
aS'@'
aS'@'
aS'@'
aS'@'
aS'@'
aS'@'
aS'@'
aS'@'
aS'@'
aS'@'
aS'@'
aa(lp726
S'@'
aS'@'
aS'@'
aS'@'
aS'@'
aS'@'
aS'@'
aS'@'
aS'@'
aS'@'
aS'@'
aS'@'
aS'@'
aS'@'
aS'@'
aS'@'
aS'@'
aS'@'
aS'@'
aS'@'
aas.