(dp1
I0
(lp2
(lp3
S'X'
aS'X'
aS'X'
aS'X'
aS'X'
aS'X'
aS'X'
aS'X'
aS'X'
aS'X'
aS'X'
aS'X'
aS'3_0'
p4
aS'3_0'
p5
aS'3_0'
p6
aS'3_0'
p7
aS'3_0'
p8
aS'3_0'
p9
aS'3_0'
p10
aS'3_0'
p11
aa(lp12
S'X'
aS'X'
aS'X'
aS'X'
aS'X'
aS'X'
aS'X'
aS'X'
aS'X'
aS'X'
aS'X'
aS'X'
aS'3_0'
p13
aS'3_0'
p14
aS'3_0'
p15
aS'3_0'
p16
aS'3_0'
p17
aS'3_0'
p18
aS'3_0'
p19
aS'3_0'
p20
aa(lp21
S'X'
aS'X'
aS'X'
aS'X'
aS'X'
aS'X'
aS'X'
aS'X'
aS'X'
aS'X'
aS'X'
aS'X'
aS'X'
aS'X'
aS'3_0'
p22
aS'3_0'
p23
aS'3_0'
p24
aS'3_0'
p25
aS'3_0'
p26
aS'3_0'
p27
aa(lp28
S'X'
aS'X'
aS'X'
aS'X'
aS'X'
aS'X'
aS'X'
aS'X'
aS'X'
aS'X'
aS'X'
aS'X'
aS'X'
aS'X'
aS'X'
aS'X'
aS'X'
aS'X'
aS'X'
aS'3_0'
p29
aa(lp30
S'X'
aS'X'
aS'X'
aS'X'
aS'X'
aS'X'
aS'X'
aS'X'
aS'X'
aS'X'
aS'X'
aS'X'
aS'X'
aS'X'
aS'X'
aS'X'
aS'X'
aS'X'
aS'X'
aS'3_0'
p31
aa(lp32
S'X'
aS'X'
aS'X'
aS'X'
aS'X'
aS'X'
aS'X'
aS'X'
aS'X'
aS'X'
aS'X'
aS'X'
aS'X'
aS'X'
aS'X'
aS'X'
aS'X'
aS'X'
aS'X'
aS'3_0'
p33
aa(lp34
S'X'
aS'X'
aS'X'
aS'X'
aS'X'
aS'X'
aS'X'
aS'X'
aS'X'
aS'X'
aS'X'
aS'X'
aS'X'
aS'X'
aS'X'
aS'X'
aS'X'
aS'X'
aS'X'
aS'3_0'
p35
aa(lp36
S'X'
aS'X'
aS'X'
aS'X'
aS'X'
aS'X'
aS'X'
aS'X'
aS'X'
aS'X'
aS'X'
aS'X'
aS'X'
aS'X'
aS'X'
aS'X'
aS'X'
aS'X'
aS'X'
aS'3_0'
p37
aa(lp38
S'X'
aS'X'
aS'X'
aS'X'
aS'X'
aS'X'
aS'X'
aS'X'
aS'X'
aS'X'
aS'X'
aS'X'
aS'X'
aS'X'
aS'X'
aS'X'
aS'X'
aS'X'
aS'X'
aS'3_0'
p39
aa(lp40
S'X'
aS'X'
aS'X'
aS'X'
aS'X'
aS'X'
aS'X'
aS'X'
aS'X'
aS'X'
aS'X'
aS'X'
aS'X'
aS'X'
aS'X'
aS'X'
aS'X'
aS'X'
aS'X'
aS'3_0'
p41
aa(lp42
S'X'
aS'X'
aS'X'
aS'X'
aS'X'
aS'X'
aS'X'
aS'X'
aS'X'
aS'X'
aS'X'
aS'X'
aS'X'
aS'X'
aS'X'
aS'X'
aS'X'
aS'X'
aS'X'
aS'3_0'
p43
aa(lp44
S'X'
aS'X'
aS'X'
aS'X'
aS'X'
aS'X'
aS'X'
aS'X'
aS'X'
aS'X'
aS'X'
aS'X'
aS'X'
aS'X'
aS'X'
aS'X'
aS'X'
aS'X'
aS'X'
aS'3_0'
p45
aa(lp46
S'X'
aS'X'
aS'X'
aS'X'
aS'X'
aS'X'
aS'X'
aS'X'
aS'X'
aS'X'
aS'X'
aS'X'
aS'X'
aS'X'
aS'X'
aS'X'
aS'X'
aS'X'
aS'X'
aS'3_0'
p47
aa(lp48
S'X'
aS'X'
aS'X'
aS'X'
aS'X'
aS'X'
aS'X'
aS'X'
aS'X'
aS'X'
aS'X'
aS'X'
aS'X'
aS'X'
aS'X'
aS'X'
aS'X'
aS'X'
aS'X'
aS'3_0'
p49
aa(lp50
S'X'
aS'X'
aS'X'
aS'X'
aS'X'
aS'X'
aS'X'
aS'X'
aS'X'
aS'X'
aS'X'
aS'X'
aS'X'
aS'X'
aS'X'
aS'X'
aS'X'
aS'X'
aS'X'
aS'3_0'
p51
aa(lp52
S'X'
aS'X'
aS'X'
aS'X'
aS'X'
aS'X'
aS'X'
aS'X'
aS'X'
aS'X'
aS'X'
aS'X'
aS'X'
aS'X'
aS'X'
aS'X'
aS'X'
aS'X'
aS'X'
aS'3_0'
p53
aa(lp54
S'X'
aS'X'
aS'X'
aS'X'
aS'X'
aS'X'
aS'X'
aS'X'
aS'X'
aS'X'
aS'X'
aS'X'
aS'X'
aS'X'
aS'X'
aS'X'
aS'X'
aS'X'
aS'X'
aS'3_0'
p55
aa(lp56
S'X'
aS'X'
aS'X'
aS'X'
aS'X'
aS'X'
aS'X'
aS'X'
aS'X'
aS'X'
aS'X'
aS'X'
aS'X'
aS'X'
aS'X'
aS'X'
aS'X'
aS'X'
aS'X'
aS'3_0'
p57
aa(lp58
S'X'
aS'X'
aS'X'
aS'X'
aS'X'
aS'X'
aS'X'
aS'X'
aS'X'
aS'X'
aS'X'
aS'X'
aS'X'
aS'X'
aS'X'
aS'X'
aS'X'
aS'X'
aS'X'
aS'3_0'
p59
aa(lp60
S'3_0'
p61
aS'3_0'
p62
aS'3_0'
p63
aS'3_0'
p64
aS'3_0'
p65
aS'3_0'
p66
aS'3_0'
p67
aS'3_0'
p68
aS'3_0'
p69
aS'3_0'
p70
aS'3_0'
p71
aS'3_0'
p72
aS'3_0'
p73
aS'3_0'
p74
aS'3_0'
p75
aS'3_0'
p76
aS'3_0'
p77
aS'3_0'
p78
aS'3_0'
p79
aS'3_0'
p80
aasI1
(lp81
(lp82
S'X'
aS'X'
aS'X'
aS'X'
aS'X'
aS'X'
aS'X'
aS'X'
aS'X'
aS'X'
aS'3_0'
p83
aS'3_0'
p84
aS'1'
aS'1'
aS'1'
aS'1'
aS'1'
aS'1'
aS'1'
aS'1'
aa(lp85
S'X'
aS'X'
aS'X'
aS'X'
aS'X'
aS'X'
aS'X'
aS'X'
aS'X'
aS'X'
aS'3_0'
p86
aS'3_0'
p87
aS'1'
aS'1'
aS'1'
aS'1'
aS'1'
aS'1'
aS'1'
aS'1'
aa(lp88
S'X'
aS'X'
aS'X'
aS'X'
aS'X'
aS'X'
aS'X'
aS'X'
aS'X'
aS'X'
aS'X'
aS'3_0'
p89
aS'3_0'
p90
aS'3_0'
p91
aS'1'
aS'1'
aS'1'
aS'1'
aS'1'
aS'3_0'
p92
aa(lp93
S'X'
aS'X'
aS'X'
aS'X'
aS'X'
aS'X'
aS'X'
aS'X'
aS'X'
aS'X'
aS'X'
aS'X'
aS'X'
aS'3_0'
p94
aS'3_0'
p95
aS'3_0'
p96
aS'3_0'
p97
aS'3_0'
p98
aS'3_0'
p99
aS'3_0'
p100
aa(lp101
S'X'
aS'X'
aS'X'
aS'X'
aS'X'
aS'X'
aS'X'
aS'X'
aS'X'
aS'X'
aS'X'
aS'X'
aS'X'
aS'X'
aS'X'
aS'X'
aS'X'
aS'X'
aS'X'
aS'3_0'
p102
aa(lp103
S'X'
aS'X'
aS'X'
aS'X'
aS'X'
aS'X'
aS'X'
aS'X'
aS'X'
aS'X'
aS'X'
aS'X'
aS'X'
aS'X'
aS'X'
aS'X'
aS'X'
aS'X'
aS'X'
aS'3_0'
p104
aa(lp105
S'X'
aS'X'
aS'X'
aS'X'
aS'X'
aS'X'
aS'X'
aS'X'
aS'X'
aS'X'
aS'X'
aS'X'
aS'X'
aS'X'
aS'X'
aS'X'
aS'X'
aS'X'
aS'X'
aS'3_0'
p106
aa(lp107
S'X'
aS'X'
aS'X'
aS'X'
aS'X'
aS'X'
aS'X'
aS'X'
aS'X'
aS'X'
aS'X'
aS'X'
aS'X'
aS'X'
aS'X'
aS'X'
aS'X'
aS'X'
aS'X'
aS'3_0'
p108
aa(lp109
S'X'
aS'X'
aS'X'
aS'X'
aS'X'
aS'X'
aS'X'
aS'X'
aS'X'
aS'X'
aS'X'
aS'X'
aS'X'
aS'X'
aS'X'
aS'X'
aS'X'
aS'X'
aS'X'
aS'3_0'
p110
aa(lp111
S'X'
aS'X'
aS'X'
aS'X'
aS'X'
aS'X'
aS'X'
aS'X'
aS'X'
aS'X'
aS'X'
aS'X'
aS'X'
aS'X'
aS'X'
aS'X'
aS'X'
aS'X'
aS'X'
aS'3_0'
p112
aa(lp113
S'X'
aS'X'
aS'X'
aS'X'
aS'X'
aS'X'
aS'X'
aS'X'
aS'X'
aS'X'
aS'X'
aS'X'
aS'X'
aS'X'
aS'X'
aS'X'
aS'X'
aS'X'
aS'X'
aS'3_0'
p114
aa(lp115
S'X'
aS'X'
aS'X'
aS'X'
aS'X'
aS'X'
aS'X'
aS'X'
aS'X'
aS'X'
aS'X'
aS'X'
aS'X'
aS'X'
aS'X'
aS'X'
aS'X'
aS'X'
aS'X'
aS'3_0'
p116
aa(lp117
S'X'
aS'X'
aS'X'
aS'X'
aS'X'
aS'X'
aS'X'
aS'X'
aS'X'
aS'X'
aS'X'
aS'X'
aS'X'
aS'X'
aS'X'
aS'X'
aS'X'
aS'X'
aS'X'
aS'3_0'
p118
aa(lp119
S'X'
aS'X'
aS'X'
aS'X'
aS'X'
aS'X'
aS'X'
aS'X'
aS'X'
aS'X'
aS'X'
aS'X'
aS'X'
aS'X'
aS'X'
aS'X'
aS'X'
aS'X'
aS'X'
aS'3_0'
p120
aa(lp121
S'X'
aS'X'
aS'X'
aS'X'
aS'X'
aS'X'
aS'X'
aS'X'
aS'X'
aS'X'
aS'X'
aS'X'
aS'X'
aS'X'
aS'X'
aS'X'
aS'X'
aS'X'
aS'X'
aS'3_0'
p122
aa(lp123
S'X'
aS'X'
aS'X'
aS'X'
aS'X'
aS'X'
aS'X'
aS'X'
aS'X'
aS'X'
aS'X'
aS'X'
aS'X'
aS'X'
aS'X'
aS'X'
aS'X'
aS'X'
aS'X'
aS'3_0'
p124
aa(lp125
S'X'
aS'X'
aS'X'
aS'X'
aS'X'
aS'X'
aS'X'
aS'X'
aS'X'
aS'X'
aS'X'
aS'X'
aS'X'
aS'X'
aS'X'
aS'X'
aS'X'
aS'X'
aS'X'
aS'3_0'
p126
aa(lp127
S'X'
aS'X'
aS'X'
aS'X'
aS'X'
aS'X'
aS'X'
aS'X'
aS'X'
aS'X'
aS'X'
aS'X'
aS'X'
aS'X'
aS'X'
aS'X'
aS'X'
aS'X'
aS'X'
aS'3_0'
p128
aa(lp129
S'X'
aS'X'
aS'X'
aS'X'
aS'X'
aS'X'
aS'X'
aS'X'
aS'X'
aS'X'
aS'X'
aS'X'
aS'X'
aS'X'
aS'X'
aS'X'
aS'X'
aS'X'
aS'X'
aS'3_0'
p130
aa(lp131
S'3_0'
p132
aS'3_0'
p133
aS'3_0'
p134
aS'3_0'
p135
aS'3_0'
p136
aS'3_0'
p137
aS'3_0'
p138
aS'3_0'
p139
aS'3_0'
p140
aS'3_0'
p141
aS'3_0'
p142
aS'3_0'
p143
aS'3_0'
p144
aS'3_0'
p145
aS'3_0'
p146
aS'3_0'
p147
aS'3_0'
p148
aS'3_0'
p149
aS'3_0'
p150
aS'3_0'
p151
aasI2
(lp152
(lp153
S'X'
aS'X'
aS'X'
aS'X'
aS'X'
aS'X'
aS'X'
aS'X'
aS'X'
aS'3_0'
p154
aS'1'
aS'1'
aS'1'
aS'1'
aS'1'
aS'1'
aS'1'
aS'1'
aS'1'
aS'1'
aa(lp155
S'X'
aS'X'
aS'X'
aS'X'
aS'X'
aS'X'
aS'X'
aS'X'
aS'X'
aS'3_0'
p156
aS'1'
aS'1'
aS'1'
aS'1'
aS'1'
aS'1'
aS'1'
aS'1'
aS'1'
aS'1'
aa(lp157
S'X'
aS'X'
aS'X'
aS'X'
aS'X'
aS'X'
aS'X'
aS'X'
aS'X'
aS'X'
aS'3_0'
p158
aS'1'
aS'1'
aS'1'
aS'1'
aS'1'
aS'1'
aS'1'
aS'1'
aS'1'
aa(lp159
S'X'
aS'X'
aS'X'
aS'X'
aS'X'
aS'X'
aS'X'
aS'X'
aS'X'
aS'X'
aS'3_0'
p160
aS'3_0'
p161
aS'3_0'
p162
aS'1'
aS'1'
aS'1'
aS'1'
aS'1'
aS'1'
aS'1'
aa(lp163
S'X'
aS'X'
aS'X'
aS'X'
aS'X'
aS'X'
aS'X'
aS'X'
aS'X'
aS'X'
aS'X'
aS'X'
aS'3_0'
p164
aS'3_0'
p165
aS'3_0'
p166
aS'3_0'
p167
aS'3_0'
p168
aS'3_0'
p169
aS'3_0'
p170
aS'3_0'
p171
aa(lp172
S'X'
aS'X'
aS'X'
aS'X'
aS'X'
aS'X'
aS'X'
aS'X'
aS'X'
aS'X'
aS'X'
aS'X'
aS'X'
aS'X'
aS'X'
aS'3_0'
p173
aS'3_0'
p174
aS'X'
aS'X'
aS'3_0'
p175
aa(lp176
S'X'
aS'X'
aS'X'
aS'X'
aS'X'
aS'X'
aS'X'
aS'X'
aS'X'
aS'X'
aS'X'
aS'X'
aS'X'
aS'X'
aS'X'
aS'X'
aS'X'
aS'X'
aS'X'
aS'3_0'
p177
aa(lp178
S'X'
aS'X'
aS'X'
aS'X'
aS'X'
aS'X'
aS'X'
aS'X'
aS'X'
aS'X'
aS'X'
aS'X'
aS'X'
aS'X'
aS'X'
aS'X'
aS'X'
aS'X'
aS'X'
aS'3_0'
p179
aa(lp180
S'X'
aS'X'
aS'X'
aS'X'
aS'X'
aS'X'
aS'X'
aS'X'
aS'X'
aS'X'
aS'X'
aS'X'
aS'X'
aS'X'
aS'X'
aS'X'
aS'X'
aS'X'
aS'X'
aS'3_0'
p181
aa(lp182
S'X'
aS'X'
aS'X'
aS'X'
aS'X'
aS'X'
aS'X'
aS'X'
aS'X'
aS'X'
aS'X'
aS'X'
aS'X'
aS'X'
aS'X'
aS'X'
aS'X'
aS'X'
aS'X'
aS'3_0'
p183
aa(lp184
S'X'
aS'X'
aS'X'
aS'X'
aS'X'
aS'X'
aS'X'
aS'X'
aS'X'
aS'X'
aS'X'
aS'X'
aS'X'
aS'X'
aS'X'
aS'X'
aS'X'
aS'X'
aS'X'
aS'3_0'
p185
aa(lp186
S'X'
aS'X'
aS'X'
aS'X'
aS'X'
aS'X'
aS'X'
aS'X'
aS'X'
aS'X'
aS'X'
aS'X'
aS'X'
aS'X'
aS'X'
aS'X'
aS'X'
aS'X'
aS'X'
aS'3_0'
p187
aa(lp188
S'X'
aS'X'
aS'X'
aS'X'
aS'X'
aS'X'
aS'X'
aS'X'
aS'X'
aS'X'
aS'X'
aS'X'
aS'X'
aS'X'
aS'X'
aS'X'
aS'X'
aS'X'
aS'X'
aS'3_0'
p189
aa(lp190
S'X'
aS'X'
aS'X'
aS'X'
aS'X'
aS'X'
aS'X'
aS'X'
aS'X'
aS'X'
aS'X'
aS'X'
aS'X'
aS'X'
aS'X'
aS'X'
aS'X'
aS'X'
aS'X'
aS'3_0'
p191
aa(lp192
S'X'
aS'X'
aS'X'
aS'X'
aS'X'
aS'X'
aS'X'
aS'X'
aS'X'
aS'X'
aS'X'
aS'X'
aS'X'
aS'X'
aS'X'
aS'X'
aS'X'
aS'X'
aS'X'
aS'3_0'
p193
aa(lp194
S'X'
aS'X'
aS'X'
aS'X'
aS'X'
aS'X'
aS'X'
aS'X'
aS'X'
aS'X'
aS'X'
aS'X'
aS'X'
aS'X'
aS'X'
aS'X'
aS'X'
aS'X'
aS'X'
aS'3_0'
p195
aa(lp196
S'X'
aS'X'
aS'X'
aS'X'
aS'X'
aS'X'
aS'X'
aS'X'
aS'X'
aS'X'
aS'X'
aS'X'
aS'X'
aS'X'
aS'X'
aS'X'
aS'X'
aS'X'
aS'X'
aS'3_0'
p197
aa(lp198
S'X'
aS'X'
aS'X'
aS'X'
aS'X'
aS'X'
aS'X'
aS'X'
aS'X'
aS'X'
aS'X'
aS'X'
aS'X'
aS'X'
aS'X'
aS'X'
aS'X'
aS'X'
aS'X'
aS'3_0'
p199
aa(lp200
S'X'
aS'X'
aS'X'
aS'X'
aS'X'
aS'X'
aS'X'
aS'X'
aS'X'
aS'X'
aS'X'
aS'X'
aS'X'
aS'X'
aS'X'
aS'X'
aS'X'
aS'X'
aS'X'
aS'3_0'
p201
aa(lp202
S'3_0'
p203
aS'3_0'
p204
aS'3_0'
p205
aS'3_0'
p206
aS'3_0'
p207
aS'3_0'
p208
aS'3_0'
p209
aS'3_0'
p210
aS'3_0'
p211
aS'3_0'
p212
aS'3_0'
p213
aS'3_0'
p214
aS'3_0'
p215
aS'3_0'
p216
aS'3_0'
p217
aS'3_0'
p218
aS'3_0'
p219
aS'3_0'
p220
aS'3_0'
p221
aS'3_0'
p222
aasI3
(lp223
(lp224
S'X'
aS'X'
aS'X'
aS'X'
aS'X'
aS'X'
aS'X'
aS'3_0'
p225
aS'3_0'
p226
aS'1'
aS'1'
aS'1'
aS'1'
aS'1'
aS'1'
aS'1'
aS'1'
aS'1'
aS'1'
aS'1'
aa(lp227
S'X'
aS'X'
aS'X'
aS'X'
aS'X'
aS'X'
aS'X'
aS'3_0'
p228
aS'3_0'
p229
aS'1'
aS'1'
aS'1'
aS'1'
aS'1'
aS'1'
aS'1'
aS'1'
aS'1'
aS'1'
aS'1'
aa(lp230
S'X'
aS'X'
aS'X'
aS'X'
aS'X'
aS'X'
aS'X'
aS'3_0'
p231
aS'3_0'
p232
aS'3_0'
p233
aS'1'
aS'1'
aS'1'
aS'1'
aS'1'
aS'1'
aS'1'
aS'1'
aS'1'
aS'1'
aa(lp234
S'X'
aS'X'
aS'X'
aS'X'
aS'X'
aS'X'
aS'X'
aS'3_0'
p235
aS'3_0'
p236
aS'3_0'
p237
aS'1'
aS'1'
aS'1'
aS'1'
aS'1'
aS'1'
aS'1'
aS'1'
aS'1'
aS'1'
aa(lp238
S'X'
aS'X'
aS'X'
aS'X'
aS'X'
aS'X'
aS'X'
aS'X'
aS'3_0'
p239
aS'3_0'
p240
aS'3_0'
p241
aS'3_0'
p242
aS'1'
aS'1'
aS'1'
aS'1'
aS'1'
aS'1'
aS'1'
aS'1'
aa(lp243
S'X'
aS'X'
aS'X'
aS'X'
aS'X'
aS'X'
aS'X'
aS'X'
aS'X'
aS'3_0'
p244
aS'3_0'
p245
aS'3_0'
p246
aS'3_0'
p247
aS'3_0'
p248
aS'3_0'
p249
aS'1'
aS'1'
aS'3_0'
p250
aS'3_0'
p251
aS'3_0'
p252
aa(lp253
S'X'
aS'X'
aS'X'
aS'X'
aS'X'
aS'X'
aS'X'
aS'X'
aS'X'
aS'X'
aS'3_0'
p254
aS'3_0'
p255
aS'3_0'
p256
aS'3_0'
p257
aS'3_0'
p258
aS'3_0'
p259
aS'3_0'
p260
aS'3_0'
p261
aS'3_0'
p262
aS'3_0'
p263
aa(lp264
S'X'
aS'X'
aS'X'
aS'X'
aS'X'
aS'X'
aS'X'
aS'X'
aS'X'
aS'X'
aS'X'
aS'X'
aS'X'
aS'3_0'
p265
aS'3_0'
p266
aS'3_0'
p267
aS'3_0'
p268
aS'3_0'
p269
aS'3_0'
p270
aS'3_0'
p271
aa(lp272
S'X'
aS'X'
aS'X'
aS'X'
aS'X'
aS'X'
aS'X'
aS'X'
aS'X'
aS'X'
aS'X'
aS'X'
aS'X'
aS'X'
aS'X'
aS'X'
aS'X'
aS'X'
aS'X'
aS'3_0'
p273
aa(lp274
S'X'
aS'X'
aS'X'
aS'X'
aS'X'
aS'X'
aS'X'
aS'X'
aS'X'
aS'X'
aS'X'
aS'X'
aS'X'
aS'X'
aS'X'
aS'X'
aS'X'
aS'X'
aS'X'
aS'3_0'
p275
aa(lp276
S'X'
aS'X'
aS'X'
aS'X'
aS'X'
aS'X'
aS'X'
aS'X'
aS'X'
aS'X'
aS'X'
aS'X'
aS'X'
aS'X'
aS'X'
aS'X'
aS'X'
aS'X'
aS'X'
aS'3_0'
p277
aa(lp278
S'X'
aS'X'
aS'X'
aS'X'
aS'X'
aS'X'
aS'X'
aS'X'
aS'X'
aS'X'
aS'X'
aS'X'
aS'X'
aS'X'
aS'X'
aS'X'
aS'X'
aS'X'
aS'X'
aS'3_0'
p279
aa(lp280
S'X'
aS'X'
aS'X'
aS'X'
aS'X'
aS'X'
aS'X'
aS'X'
aS'X'
aS'X'
aS'X'
aS'X'
aS'X'
aS'X'
aS'X'
aS'X'
aS'X'
aS'X'
aS'X'
aS'3_0'
p281
aa(lp282
S'X'
aS'X'
aS'X'
aS'X'
aS'X'
aS'X'
aS'X'
aS'X'
aS'X'
aS'X'
aS'X'
aS'X'
aS'X'
aS'X'
aS'X'
aS'X'
aS'X'
aS'X'
aS'X'
aS'3_0'
p283
aa(lp284
S'X'
aS'X'
aS'X'
aS'X'
aS'X'
aS'X'
aS'X'
aS'X'
aS'X'
aS'X'
aS'X'
aS'X'
aS'X'
aS'X'
aS'X'
aS'X'
aS'X'
aS'X'
aS'X'
aS'3_0'
p285
aa(lp286
S'X'
aS'X'
aS'X'
aS'X'
aS'X'
aS'X'
aS'X'
aS'X'
aS'X'
aS'X'
aS'X'
aS'X'
aS'X'
aS'X'
aS'X'
aS'X'
aS'X'
aS'X'
aS'X'
aS'3_0'
p287
aa(lp288
S'X'
aS'X'
aS'X'
aS'X'
aS'X'
aS'X'
aS'X'
aS'X'
aS'X'
aS'X'
aS'X'
aS'X'
aS'X'
aS'X'
aS'X'
aS'X'
aS'X'
aS'X'
aS'X'
aS'3_0'
p289
aa(lp290
S'X'
aS'X'
aS'X'
aS'X'
aS'X'
aS'X'
aS'X'
aS'X'
aS'X'
aS'X'
aS'X'
aS'X'
aS'X'
aS'X'
aS'X'
aS'X'
aS'X'
aS'X'
aS'X'
aS'3_0'
p291
aa(lp292
S'X'
aS'X'
aS'X'
aS'X'
aS'X'
aS'X'
aS'X'
aS'X'
aS'X'
aS'X'
aS'X'
aS'X'
aS'X'
aS'X'
aS'X'
aS'X'
aS'X'
aS'X'
aS'X'
aS'3_0'
p293
aa(lp294
S'3_0'
p295
aS'3_0'
p296
aS'3_0'
p297
aS'3_0'
p298
aS'3_0'
p299
aS'3_0'
p300
aS'3_0'
p301
aS'3_0'
p302
aS'3_0'
p303
aS'3_0'
p304
aS'3_0'
p305
aS'3_0'
p306
aS'3_0'
p307
aS'3_0'
p308
aS'3_0'
p309
aS'3_0'
p310
aS'3_0'
p311
aS'3_0'
p312
aS'3_0'
p313
aS'3_0'
p314
aasI4
(lp315
(lp316
S'X'
aS'X'
aS'X'
aS'X'
aS'X'
aS'X'
aS'3_0'
p317
aS'2'
aS'1'
aS'1'
aS'1'
aS'1'
aS'1'
aS'1'
aS'1'
aS'1'
aS'1'
aS'1'
aS'1'
aS'1'
aa(lp318
S'X'
aS'X'
aS'X'
aS'X'
aS'X'
aS'X'
aS'3_0'
p319
aS'2'
aS'1'
aS'1'
aS'1'
aS'1'
aS'1'
aS'1'
aS'1'
aS'1'
aS'1'
aS'1'
aS'1'
aS'1'
aa(lp320
S'X'
aS'X'
aS'X'
aS'X'
aS'X'
aS'X'
aS'3_0'
p321
aS'2'
aS'1'
aS'1'
aS'1'
aS'1'
aS'1'
aS'1'
aS'1'
aS'1'
aS'1'
aS'1'
aS'1'
aS'1'
aa(lp322
S'X'
aS'X'
aS'X'
aS'X'
aS'X'
aS'X'
aS'3_0'
p323
aS'2'
aS'2'
aS'1'
aS'1'
aS'1'
aS'1'
aS'1'
aS'1'
aS'1'
aS'1'
aS'1'
aS'1'
aS'1'
aa(lp324
S'X'
aS'X'
aS'X'
aS'X'
aS'X'
aS'X'
aS'X'
aS'3_0'
p325
aS'2'
aS'2'
aS'1'
aS'1'
aS'1'
aS'1'
aS'1'
aS'1'
aS'1'
aS'1'
aS'1'
aS'1'
aa(lp326
S'X'
aS'X'
aS'X'
aS'X'
aS'X'
aS'X'
aS'X'
aS'X'
aS'3_0'
p327
aS'2'
aS'2'
aS'1'
aS'1'
aS'1'
aS'1'
aS'1'
aS'1'
aS'1'
aS'1'
aS'1'
aa(lp328
S'X'
aS'X'
aS'X'
aS'X'
aS'X'
aS'X'
aS'X'
aS'X'
aS'X'
aS'3_0'
p329
aS'2'
aS'2'
aS'2'
aS'2'
aS'1'
aS'1'
aS'1'
aS'1'
aS'2'
aS'2'
aa(lp330
S'X'
aS'X'
aS'X'
aS'X'
aS'X'
aS'X'
aS'X'
aS'X'
aS'X'
aS'X'
aS'X'
aS'X'
aS'3_0'
p331
aS'2'
aS'2'
aS'2'
aS'2'
aS'2'
aS'2'
aS'3_0'
p332
aa(lp333
S'X'
aS'X'
aS'X'
aS'X'
aS'X'
aS'X'
aS'X'
aS'X'
aS'X'
aS'X'
aS'X'
aS'X'
aS'X'
aS'X'
aS'X'
aS'X'
aS'X'
aS'X'
aS'X'
aS'3_0'
p334
aa(lp335
S'X'
aS'X'
aS'X'
aS'X'
aS'X'
aS'X'
aS'X'
aS'X'
aS'X'
aS'X'
aS'X'
aS'X'
aS'X'
aS'X'
aS'X'
aS'X'
aS'X'
aS'X'
aS'X'
aS'3_0'
p336
aa(lp337
S'X'
aS'X'
aS'X'
aS'X'
aS'X'
aS'X'
aS'X'
aS'X'
aS'X'
aS'X'
aS'X'
aS'X'
aS'X'
aS'X'
aS'X'
aS'X'
aS'X'
aS'X'
aS'X'
aS'3_0'
p338
aa(lp339
S'X'
aS'X'
aS'X'
aS'X'
aS'X'
aS'X'
aS'X'
aS'X'
aS'X'
aS'X'
aS'X'
aS'X'
aS'X'
aS'X'
aS'X'
aS'X'
aS'X'
aS'X'
aS'X'
aS'3_0'
p340
aa(lp341
S'X'
aS'X'
aS'X'
aS'X'
aS'X'
aS'X'
aS'X'
aS'X'
aS'X'
aS'X'
aS'X'
aS'X'
aS'X'
aS'X'
aS'X'
aS'X'
aS'X'
aS'X'
aS'X'
aS'3_0'
p342
aa(lp343
S'X'
aS'X'
aS'X'
aS'X'
aS'X'
aS'X'
aS'X'
aS'X'
aS'X'
aS'X'
aS'X'
aS'X'
aS'X'
aS'X'
aS'X'
aS'X'
aS'X'
aS'X'
aS'X'
aS'3_0'
p344
aa(lp345
S'X'
aS'X'
aS'X'
aS'X'
aS'X'
aS'X'
aS'X'
aS'X'
aS'X'
aS'X'
aS'X'
aS'X'
aS'X'
aS'X'
aS'X'
aS'X'
aS'X'
aS'X'
aS'X'
aS'3_0'
p346
aa(lp347
S'X'
aS'X'
aS'X'
aS'X'
aS'X'
aS'X'
aS'X'
aS'X'
aS'X'
aS'X'
aS'X'
aS'X'
aS'X'
aS'X'
aS'X'
aS'X'
aS'X'
aS'X'
aS'X'
aS'3_0'
p348
aa(lp349
S'X'
aS'X'
aS'X'
aS'X'
aS'X'
aS'X'
aS'X'
aS'X'
aS'X'
aS'X'
aS'X'
aS'X'
aS'X'
aS'X'
aS'X'
aS'X'
aS'X'
aS'X'
aS'X'
aS'3_0'
p350
aa(lp351
S'X'
aS'X'
aS'X'
aS'X'
aS'X'
aS'X'
aS'X'
aS'X'
aS'X'
aS'X'
aS'X'
aS'X'
aS'X'
aS'X'
aS'X'
aS'X'
aS'X'
aS'X'
aS'X'
aS'3_0'
p352
aa(lp353
S'X'
aS'X'
aS'X'
aS'X'
aS'X'
aS'X'
aS'X'
aS'X'
aS'X'
aS'X'
aS'X'
aS'X'
aS'X'
aS'X'
aS'X'
aS'X'
aS'X'
aS'X'
aS'X'
aS'3_0'
p354
aa(lp355
S'3_0'
p356
aS'3_0'
p357
aS'3_0'
p358
aS'3_0'
p359
aS'3_0'
p360
aS'3_0'
p361
aS'3_0'
p362
aS'3_0'
p363
aS'3_0'
p364
aS'3_0'
p365
aS'3_0'
p366
aS'3_0'
p367
aS'3_0'
p368
aS'3_0'
p369
aS'3_0'
p370
aS'3_0'
p371
aS'3_0'
p372
aS'3_0'
p373
aS'3_0'
p374
aS'3_0'
p375
aasI5
(lp376
(lp377
S'X'
aS'X'
aS'X'
aS'X'
aS'X'
aS'X'
aS'0_0'
p378
aS'@'
aS'@'
aS'@'
aS'@'
aS'@'
aS'@'
aS'@'
aS'@'
aS'@'
aS'@'
aS'@'
aS'@'
aS'@'
aa(lp379
S'X'
aS'X'
aS'X'
aS'X'
aS'X'
aS'X'
aS'0_0'
p380
aS'@'
aS'@'
aS'@'
aS'@'
aS'@'
aS'@'
aS'@'
aS'@'
aS'@'
aS'@'
aS'@'
aS'@'
aS'@'
aa(lp381
S'X'
aS'X'
aS'X'
aS'X'
aS'X'
aS'X'
aS'0_0'
p382
aS'@'
aS'@'
aS'@'
aS'@'
aS'@'
aS'@'
aS'@'
aS'@'
aS'@'
aS'@'
aS'@'
aS'@'
aS'@'
aa(lp383
S'X'
aS'X'
aS'X'
aS'X'
aS'X'
aS'X'
aS'X'
aS'0_2'
p384
aS'@'
aS'@'
aS'@'
aS'@'
aS'@'
aS'@'
aS'@'
aS'@'
aS'@'
aS'@'
aS'@'
aS'@'
aa(lp385
S'X'
aS'X'
aS'X'
aS'X'
aS'X'
aS'X'
aS'X'
aS'0_0'
p386
aS'@'
aS'@'
aS'@'
aS'@'
aS'@'
aS'@'
aS'@'
aS'@'
aS'@'
aS'@'
aS'@'
aS'@'
aa(lp387
S'X'
aS'X'
aS'X'
aS'X'
aS'X'
aS'X'
aS'X'
aS'X'
aS'0_2'
p388
aS'@'
aS'@'
aS'@'
aS'@'
aS'@'
aS'@'
aS'@'
aS'@'
aS'@'
aS'@'
aS'@'
aa(lp389
S'X'
aS'X'
aS'X'
aS'X'
aS'X'
aS'X'
aS'X'
aS'X'
aS'0_0'
p390
aS'0_2'
p391
aS'0_2'
p392
aS'@'
aS'@'
aS'@'
aS'@'
aS'@'
aS'@'
aS'@'
aS'@'
aS'@'
aa(lp393
S'X'
aS'X'
aS'X'
aS'X'
aS'X'
aS'X'
aS'X'
aS'X'
aS'X'
aS'0_0'
p394
aS'0_0'
p395
aS'0_2'
p396
aS'0_2'
p397
aS'@'
aS'@'
aS'@'
aS'@'
aS'@'
aS'0_3'
p398
aS'0_2'
p399
aa(lp400
S'X'
aS'X'
aS'X'
aS'X'
aS'X'
aS'X'
aS'X'
aS'X'
aS'X'
aS'X'
aS'X'
aS'0_0'
p401
aS'0_0'
p402
aS'0_2'
p403
aS'0_2'
p404
aS'0_2'
p405
aS'0_2'
p406
aS'0_2'
p407
aS'0_0'
p408
aS'0_0'
p409
aa(lp410
S'X'
aS'X'
aS'X'
aS'X'
aS'X'
aS'X'
aS'X'
aS'X'
aS'X'
aS'X'
aS'X'
aS'X'
aS'X'
aS'X'
aS'X'
aS'X'
aS'X'
aS'X'
aS'X'
aS'3_0'
p411
aa(lp412
S'X'
aS'X'
aS'X'
aS'X'
aS'X'
aS'X'
aS'X'
aS'X'
aS'X'
aS'X'
aS'X'
aS'X'
aS'X'
aS'X'
aS'X'
aS'X'
aS'X'
aS'X'
aS'X'
aS'3_0'
p413
aa(lp414
S'X'
aS'X'
aS'X'
aS'X'
aS'X'
aS'X'
aS'X'
aS'X'
aS'X'
aS'X'
aS'X'
aS'X'
aS'X'
aS'X'
aS'X'
aS'X'
aS'X'
aS'X'
aS'X'
aS'3_0'
p415
aa(lp416
S'X'
aS'X'
aS'X'
aS'X'
aS'X'
aS'X'
aS'X'
aS'X'
aS'X'
aS'X'
aS'X'
aS'X'
aS'X'
aS'X'
aS'X'
aS'X'
aS'X'
aS'X'
aS'X'
aS'3_0'
p417
aa(lp418
S'X'
aS'X'
aS'X'
aS'X'
aS'X'
aS'X'
aS'X'
aS'X'
aS'X'
aS'X'
aS'X'
aS'X'
aS'X'
aS'X'
aS'X'
aS'X'
aS'X'
aS'X'
aS'X'
aS'3_0'
p419
aa(lp420
S'X'
aS'X'
aS'X'
aS'X'
aS'X'
aS'X'
aS'X'
aS'X'
aS'X'
aS'X'
aS'X'
aS'X'
aS'X'
aS'X'
aS'X'
aS'X'
aS'X'
aS'X'
aS'X'
aS'3_0'
p421
aa(lp422
S'X'
aS'X'
aS'X'
aS'X'
aS'X'
aS'X'
aS'X'
aS'X'
aS'X'
aS'X'
aS'X'
aS'X'
aS'X'
aS'X'
aS'X'
aS'X'
aS'X'
aS'X'
aS'X'
aS'3_0'
p423
aa(lp424
S'X'
aS'X'
aS'X'
aS'X'
aS'X'
aS'X'
aS'X'
aS'X'
aS'X'
aS'X'
aS'X'
aS'X'
aS'X'
aS'X'
aS'X'
aS'X'
aS'X'
aS'X'
aS'X'
aS'3_0'
p425
aa(lp426
S'X'
aS'X'
aS'X'
aS'X'
aS'X'
aS'X'
aS'X'
aS'X'
aS'X'
aS'X'
aS'X'
aS'X'
aS'X'
aS'X'
aS'X'
aS'X'
aS'X'
aS'X'
aS'X'
aS'3_0'
p427
aa(lp428
S'X'
aS'X'
aS'X'
aS'X'
aS'X'
aS'X'
aS'X'
aS'X'
aS'X'
aS'X'
aS'X'
aS'X'
aS'X'
aS'X'
aS'X'
aS'X'
aS'X'
aS'X'
aS'X'
aS'3_0'
p429
aa(lp430
S'3_0'
p431
aS'3_0'
p432
aS'3_0'
p433
aS'3_0'
p434
aS'3_0'
p435
aS'3_0'
p436
aS'3_0'
p437
aS'3_0'
p438
aS'3_0'
p439
aS'3_0'
p440
aS'3_0'
p441
aS'3_0'
p442
aS'3_0'
p443
aS'3_0'
p444
aS'3_0'
p445
aS'3_0'
p446
aS'3_0'
p447
aS'3_0'
p448
aS'3_0'
p449
aS'3_0'
p450
aasI6
(lp451
(lp452
S'X'
aS'X'
aS'X'
aS'X'
aS'X'
aS'0_0'
p453
aS'@'
aS'@'
aS'@'
aS'@'
aS'@'
aS'@'
aS'@'
aS'@'
aS'@'
aS'@'
aS'@'
aS'@'
aS'@'
aS'@'
aa(lp454
S'X'
aS'X'
aS'X'
aS'X'
aS'X'
aS'0_0'
p455
aS'@'
aS'@'
aS'@'
aS'@'
aS'@'
aS'@'
aS'@'
aS'@'
aS'@'
aS'@'
aS'@'
aS'@'
aS'@'
aS'@'
aa(lp456
S'X'
aS'X'
aS'X'
aS'X'
aS'X'
aS'0_0'
p457
aS'@'
aS'@'
aS'@'
aS'@'
aS'@'
aS'@'
aS'@'
aS'@'
aS'@'
aS'@'
aS'@'
aS'@'
aS'@'
aS'@'
aa(lp458
S'X'
aS'X'
aS'X'
aS'X'
aS'X'
aS'0_0'
p459
aS'0_2'
p460
aS'@'
aS'@'
aS'@'
aS'@'
aS'@'
aS'@'
aS'@'
aS'@'
aS'@'
aS'@'
aS'@'
aS'@'
aS'@'
aa(lp461
S'X'
aS'X'
aS'X'
aS'X'
aS'X'
aS'X'
aS'0_0'
p462
aS'@'
aS'@'
aS'@'
aS'@'
aS'@'
aS'@'
aS'@'
aS'@'
aS'@'
aS'@'
aS'@'
aS'@'
aS'@'
aa(lp463
S'X'
aS'X'
aS'X'
aS'X'
aS'X'
aS'X'
aS'0_0'
p464
aS'0_2'
p465
aS'@'
aS'@'
aS'@'
aS'@'
aS'@'
aS'@'
aS'@'
aS'@'
aS'@'
aS'@'
aS'@'
aS'@'
aa(lp466
S'X'
aS'X'
aS'X'
aS'X'
aS'X'
aS'X'
aS'X'
aS'0_0'
p467
aS'@'
aS'@'
aS'@'
aS'@'
aS'@'
aS'@'
aS'@'
aS'@'
aS'@'
aS'@'
aS'@'
aS'@'
aa(lp468
S'X'
aS'X'
aS'X'
aS'X'
aS'X'
aS'X'
aS'X'
aS'0_0'
p469
aS'0_2'
p470
aS'@'
aS'@'
aS'@'
aS'@'
aS'@'
aS'@'
aS'@'
aS'@'
aS'@'
aS'@'
aS'@'
aa(lp471
S'X'
aS'X'
aS'X'
aS'X'
aS'X'
aS'X'
aS'X'
aS'X'
aS'0_0'
p472
aS'0_2'
p473
aS'0_2'
p474
aS'@'
aS'@'
aS'@'
aS'@'
aS'@'
aS'@'
aS'@'
aS'@'
aS'@'
aa(lp475
S'X'
aS'X'
aS'X'
aS'X'
aS'X'
aS'X'
aS'X'
aS'X'
aS'0_0'
p476
aS'0_0'
p477
aS'0_0'
p478
aS'0_2'
p479
aS'0_2'
p480
aS'0_2'
p481
aS'0_2'
p482
aS'0_2'
p483
aS'0_2'
p484
aS'0_2'
p485
aS'0_2'
p486
aS'0_2'
p487
aa(lp488
S'X'
aS'X'
aS'X'
aS'X'
aS'X'
aS'X'
aS'X'
aS'X'
aS'X'
aS'0_0'
p489
aS'0_0'
p490
aS'0_0'
p491
aS'0_0'
p492
aS'0_0'
p493
aS'0_0'
p494
aS'0_0'
p495
aS'0_0'
p496
aS'0_0'
p497
aS'X'
aS'3_0'
p498
aa(lp499
S'X'
aS'X'
aS'X'
aS'X'
aS'X'
aS'X'
aS'X'
aS'X'
aS'X'
aS'X'
aS'X'
aS'X'
aS'X'
aS'X'
aS'X'
aS'X'
aS'X'
aS'X'
aS'X'
aS'3_0'
p500
aa(lp501
S'X'
aS'X'
aS'X'
aS'X'
aS'X'
aS'X'
aS'X'
aS'X'
aS'X'
aS'X'
aS'X'
aS'X'
aS'X'
aS'X'
aS'X'
aS'X'
aS'X'
aS'X'
aS'X'
aS'3_0'
p502
aa(lp503
S'X'
aS'X'
aS'X'
aS'X'
aS'X'
aS'X'
aS'X'
aS'X'
aS'X'
aS'X'
aS'X'
aS'X'
aS'X'
aS'X'
aS'X'
aS'X'
aS'X'
aS'X'
aS'X'
aS'3_0'
p504
aa(lp505
S'X'
aS'X'
aS'X'
aS'X'
aS'X'
aS'X'
aS'X'
aS'X'
aS'X'
aS'X'
aS'X'
aS'X'
aS'X'
aS'X'
aS'X'
aS'X'
aS'X'
aS'X'
aS'X'
aS'3_0'
p506
aa(lp507
S'X'
aS'X'
aS'X'
aS'X'
aS'X'
aS'X'
aS'X'
aS'X'
aS'X'
aS'X'
aS'X'
aS'X'
aS'X'
aS'X'
aS'X'
aS'X'
aS'X'
aS'X'
aS'X'
aS'3_0'
p508
aa(lp509
S'X'
aS'X'
aS'X'
aS'X'
aS'X'
aS'X'
aS'X'
aS'X'
aS'X'
aS'X'
aS'X'
aS'X'
aS'X'
aS'X'
aS'X'
aS'X'
aS'X'
aS'X'
aS'X'
aS'3_0'
p510
aa(lp511
S'X'
aS'X'
aS'X'
aS'X'
aS'X'
aS'X'
aS'X'
aS'X'
aS'X'
aS'X'
aS'X'
aS'X'
aS'X'
aS'X'
aS'X'
aS'X'
aS'X'
aS'X'
aS'X'
aS'3_0'
p512
aa(lp513
S'X'
aS'X'
aS'X'
aS'X'
aS'X'
aS'X'
aS'X'
aS'X'
aS'X'
aS'X'
aS'X'
aS'X'
aS'X'
aS'X'
aS'X'
aS'X'
aS'X'
aS'X'
aS'X'
aS'3_0'
p514
aa(lp515
S'3_0'
p516
aS'3_0'
p517
aS'3_0'
p518
aS'3_0'
p519
aS'3_0'
p520
aS'3_0'
p521
aS'3_0'
p522
aS'3_0'
p523
aS'3_0'
p524
aS'3_0'
p525
aS'3_0'
p526
aS'3_0'
p527
aS'3_0'
p528
aS'3_0'
p529
aS'3_0'
p530
aS'3_0'
p531
aS'3_0'
p532
aS'3_0'
p533
aS'3_0'
p534
aS'3_0'
p535
aasI7
(lp536
(lp537
S'X'
aS'X'
aS'X'
aS'X'
aS'0_0'
p538
aS'@'
aS'@'
aS'@'
aS'@'
aS'@'
aS'@'
aS'@'
aS'@'
aS'@'
aS'@'
aS'@'
aS'@'
aS'@'
aS'@'
aS'@'
aa(lp539
S'X'
aS'X'
aS'X'
aS'X'
aS'0_0'
p540
aS'@'
aS'@'
aS'@'
aS'@'
aS'@'
aS'@'
aS'@'
aS'@'
aS'@'
aS'@'
aS'@'
aS'@'
aS'@'
aS'@'
aS'@'
aa(lp541
S'X'
aS'X'
aS'X'
aS'X'
aS'0_0'
p542
aS'@'
aS'@'
aS'@'
aS'@'
aS'@'
aS'@'
aS'@'
aS'@'
aS'@'
aS'@'
aS'@'
aS'@'
aS'@'
aS'@'
aS'@'
aa(lp543
S'X'
aS'X'
aS'X'
aS'X'
aS'0_0'
p544
aS'@'
aS'@'
aS'@'
aS'@'
aS'@'
aS'@'
aS'@'
aS'@'
aS'@'
aS'@'
aS'@'
aS'@'
aS'@'
aS'@'
aS'@'
aa(lp545
S'X'
aS'X'
aS'X'
aS'X'
aS'0_0'
p546
aS'0_2'
p547
aS'@'
aS'@'
aS'@'
aS'@'
aS'@'
aS'@'
aS'@'
aS'@'
aS'@'
aS'@'
aS'@'
aS'@'
aS'@'
aS'@'
aa(lp548
S'X'
aS'X'
aS'X'
aS'X'
aS'0_0'
p549
aS'0_0'
p550
aS'@'
aS'@'
aS'@'
aS'@'
aS'@'
aS'@'
aS'@'
aS'@'
aS'@'
aS'@'
aS'@'
aS'@'
aS'@'
aS'@'
aa(lp551
S'X'
aS'X'
aS'X'
aS'X'
aS'X'
aS'0_0'
p552
aS'0_2'
p553
aS'@'
aS'@'
aS'@'
aS'@'
aS'@'
aS'@'
aS'@'
aS'@'
aS'@'
aS'@'
aS'@'
aS'@'
aS'@'
aa(lp554
S'X'
aS'X'
aS'X'
aS'X'
aS'X'
aS'0_0'
p555
aS'0_0'
p556
aS'@'
aS'@'
aS'@'
aS'@'
aS'@'
aS'@'
aS'@'
aS'@'
aS'@'
aS'@'
aS'@'
aS'@'
aS'@'
aa(lp557
S'X'
aS'X'
aS'X'
aS'X'
aS'X'
aS'0_0'
p558
aS'0_0'
p559
aS'0_2'
p560
aS'@'
aS'@'
aS'@'
aS'@'
aS'@'
aS'@'
aS'@'
aS'@'
aS'@'
aS'@'
aS'@'
aS'@'
aa(lp561
S'X'
aS'X'
aS'X'
aS'X'
aS'X'
aS'0_0'
p562
aS'0_0'
p563
aS'0_0'
p564
aS'@'
aS'@'
aS'@'
aS'@'
aS'@'
aS'@'
aS'@'
aS'@'
aS'@'
aS'@'
aS'@'
aS'@'
aa(lp565
S'X'
aS'X'
aS'X'
aS'X'
aS'X'
aS'0_0'
p566
aS'0_0'
p567
aS'0_0'
p568
aS'0_2'
p569
aS'@'
aS'@'
aS'@'
aS'@'
aS'@'
aS'@'
aS'@'
aS'@'
aS'@'
aS'0_3'
p570
aS'0_2'
p571
aa(lp572
S'X'
aS'X'
aS'X'
aS'X'
aS'X'
aS'X'
aS'0_0'
p573
aS'0_0'
p574
aS'0_0'
p575
aS'0_2'
p576
aS'0_2'
p577
aS'0_2'
p578
aS'0_2'
p579
aS'0_2'
p580
aS'0_2'
p581
aS'0_2'
p582
aS'0_2'
p583
aS'0_2'
p584
aS'0_0'
p585
aS'3_0'
p586
aa(lp587
S'X'
aS'X'
aS'X'
aS'X'
aS'X'
aS'X'
aS'X'
aS'0_0'
p588
aS'0_0'
p589
aS'0_0'
p590
aS'0_0'
p591
aS'0_0'
p592
aS'0_0'
p593
aS'0_0'
p594
aS'0_0'
p595
aS'X'
aS'X'
aS'X'
aS'X'
aS'3_0'
p596
aa(lp597
S'X'
aS'X'
aS'X'
aS'X'
aS'X'
aS'X'
aS'X'
aS'X'
aS'0_0'
p598
aS'0_0'
p599
aS'0_0'
p600
aS'X'
aS'X'
aS'X'
aS'X'
aS'X'
aS'X'
aS'X'
aS'X'
aS'3_0'
p601
aa(lp602
S'X'
aS'X'
aS'X'
aS'X'
aS'X'
aS'X'
aS'X'
aS'X'
aS'X'
aS'X'
aS'X'
aS'X'
aS'X'
aS'X'
aS'X'
aS'X'
aS'X'
aS'X'
aS'X'
aS'3_0'
p603
aa(lp604
S'X'
aS'X'
aS'X'
aS'X'
aS'X'
aS'X'
aS'X'
aS'X'
aS'X'
aS'X'
aS'X'
aS'X'
aS'X'
aS'X'
aS'X'
aS'X'
aS'X'
aS'X'
aS'X'
aS'3_0'
p605
aa(lp606
S'X'
aS'X'
aS'X'
aS'X'
aS'X'
aS'X'
aS'X'
aS'X'
aS'X'
aS'X'
aS'X'
aS'X'
aS'X'
aS'X'
aS'X'
aS'X'
aS'X'
aS'X'
aS'X'
aS'3_0'
p607
aa(lp608
S'X'
aS'X'
aS'X'
aS'X'
aS'X'
aS'X'
aS'X'
aS'X'
aS'X'
aS'X'
aS'X'
aS'X'
aS'X'
aS'X'
aS'X'
aS'X'
aS'X'
aS'X'
aS'X'
aS'3_0'
p609
aa(lp610
S'X'
aS'X'
aS'X'
aS'X'
aS'X'
aS'X'
aS'X'
aS'X'
aS'X'
aS'X'
aS'X'
aS'X'
aS'X'
aS'X'
aS'X'
aS'X'
aS'X'
aS'X'
aS'X'
aS'3_0'
p611
aa(lp612
S'3_0'
p613
aS'3_0'
p614
aS'3_0'
p615
aS'3_0'
p616
aS'3_0'
p617
aS'3_0'
p618
aS'3_0'
p619
aS'3_0'
p620
aS'3_0'
p621
aS'3_0'
p622
aS'3_0'
p623
aS'3_0'
p624
aS'3_0'
p625
aS'3_0'
p626
aS'3_0'
p627
aS'3_0'
p628
aS'3_0'
p629
aS'3_0'
p630
aS'3_0'
p631
aS'3_0'
p632
aasI8
(lp633
(lp634
S'X'
aS'X'
aS'0_0'
p635
aS'0_0'
p636
aS'@'
aS'@'
aS'@'
aS'@'
aS'@'
aS'@'
aS'@'
aS'@'
aS'@'
aS'@'
aS'@'
aS'@'
aS'@'
aS'@'
aS'@'
aS'@'
aa(lp637
S'X'
aS'X'
aS'X'
aS'0_0'
p638
aS'@'
aS'@'
aS'@'
aS'@'
aS'@'
aS'@'
aS'@'
aS'@'
aS'@'
aS'@'
aS'@'
aS'@'
aS'@'
aS'@'
aS'@'
aS'@'
aa(lp639
S'X'
aS'X'
aS'X'
aS'0_0'
p640
aS'@'
aS'@'
aS'@'
aS'@'
aS'@'
aS'@'
aS'@'
aS'@'
aS'@'
aS'@'
aS'@'
aS'@'
aS'@'
aS'@'
aS'@'
aS'@'
aa(lp641
S'X'
aS'X'
aS'X'
aS'0_0'
p642
aS'@'
aS'@'
aS'@'
aS'@'
aS'@'
aS'@'
aS'@'
aS'@'
aS'@'
aS'@'
aS'@'
aS'@'
aS'@'
aS'@'
aS'@'
aS'@'
aa(lp643
S'X'
aS'X'
aS'X'
aS'0_0'
p644
aS'@'
aS'@'
aS'@'
aS'@'
aS'@'
aS'@'
aS'@'
aS'@'
aS'@'
aS'@'
aS'@'
aS'@'
aS'@'
aS'@'
aS'@'
aS'@'
aa(lp645
S'X'
aS'X'
aS'0_0'
p646
aS'0_0'
p647
aS'@'
aS'@'
aS'@'
aS'@'
aS'@'
aS'@'
aS'@'
aS'@'
aS'@'
aS'@'
aS'@'
aS'@'
aS'@'
aS'@'
aS'@'
aS'@'
aa(lp648
S'X'
aS'X'
aS'0_0'
p649
aS'0_0'
p650
aS'0_2'
p651
aS'@'
aS'@'
aS'@'
aS'@'
aS'@'
aS'@'
aS'@'
aS'@'
aS'@'
aS'@'
aS'@'
aS'@'
aS'@'
aS'@'
aS'@'
aa(lp652
S'X'
aS'X'
aS'0_0'
p653
aS'0_0'
p654
aS'0_0'
p655
aS'@'
aS'@'
aS'@'
aS'@'
aS'@'
aS'@'
aS'@'
aS'@'
aS'@'
aS'@'
aS'@'
aS'@'
aS'@'
aS'@'
aS'@'
aa(lp656
S'X'
aS'0_0'
p657
aS'0_0'
p658
aS'0_0'
p659
aS'0_0'
p660
aS'@'
aS'@'
aS'@'
aS'@'
aS'@'
aS'@'
aS'@'
aS'@'
aS'@'
aS'@'
aS'@'
aS'@'
aS'@'
aS'@'
aS'@'
aa(lp661
S'0_1'
p662
aS'0_0'
p663
aS'0_0'
p664
aS'0_0'
p665
aS'0_0'
p666
aS'@'
aS'@'
aS'@'
aS'@'
aS'@'
aS'@'
aS'@'
aS'@'
aS'@'
aS'@'
aS'@'
aS'@'
aS'@'
aS'@'
aS'@'
aa(lp667
S'0_1'
p668
aS'0_0'
p669
aS'0_0'
p670
aS'0_0'
p671
aS'0_0'
p672
aS'@'
aS'@'
aS'@'
aS'@'
aS'@'
aS'@'
aS'@'
aS'@'
aS'@'
aS'@'
aS'@'
aS'@'
aS'@'
aS'@'
aS'@'
aa(lp673
S'0_0'
p674
aS'0_0'
p675
aS'0_0'
p676
aS'0_0'
p677
aS'0_0'
p678
aS'0_2'
p679
aS'@'
aS'@'
aS'@'
aS'@'
aS'@'
aS'@'
aS'@'
aS'@'
aS'@'
aS'@'
aS'@'
aS'@'
aS'@'
aS'0_3'
p680
aa(lp681
S'0_0'
p682
aS'0_0'
p683
aS'0_0'
p684
aS'0_0'
p685
aS'0_0'
p686
aS'0_0'
p687
aS'0_2'
p688
aS'@'
aS'@'
aS'@'
aS'@'
aS'@'
aS'@'
aS'@'
aS'@'
aS'0_3'
p689
aS'0_2'
p690
aS'0_2'
p691
aS'0_2'
p692
aS'0_0'
p693
aa(lp694
S'0_0'
p695
aS'0_0'
p696
aS'0_0'
p697
aS'0_0'
p698
aS'0_0'
p699
aS'0_0'
p700
aS'0_0'
p701
aS'0_2'
p702
aS'@'
aS'@'
aS'@'
aS'0_3'
p703
aS'0_2'
p704
aS'0_2'
p705
aS'0_2'
p706
aS'0_0'
p707
aS'0_0'
p708
aS'0_0'
p709
aS'X'
aS'3_0'
p710
aa(lp711
S'0_0'
p712
aS'0_0'
p713
aS'0_0'
p714
aS'0_0'
p715
aS'0_0'
p716
aS'0_0'
p717
aS'0_0'
p718
aS'0_0'
p719
aS'0_2'
p720
aS'0_2'
p721
aS'0_2'
p722
aS'0_0'
p723
aS'0_0'
p724
aS'0_0'
p725
aS'0_0'
p726
aS'X'
aS'X'
aS'X'
aS'X'
aS'3_0'
p727
aa(lp728
S'0_0'
p729
aS'0_0'
p730
aS'0_0'
p731
aS'0_0'
p732
aS'0_0'
p733
aS'0_0'
p734
aS'0_0'
p735
aS'0_0'
p736
aS'0_0'
p737
aS'0_0'
p738
aS'0_0'
p739
aS'0_0'
p740
aS'0_0'
p741
aS'0_0'
p742
aS'X'
aS'X'
aS'X'
aS'X'
aS'X'
aS'3_0'
p743
aa(lp744
S'0_0'
p745
aS'0_0'
p746
aS'0_0'
p747
aS'0_0'
p748
aS'0_0'
p749
aS'0_0'
p750
aS'0_0'
p751
aS'0_0'
p752
aS'0_0'
p753
aS'0_0'
p754
aS'0_0'
p755
aS'0_0'
p756
aS'0_0'
p757
aS'X'
aS'X'
aS'X'
aS'X'
aS'X'
aS'X'
aS'3_0'
p758
aa(lp759
S'0_0'
p760
aS'0_0'
p761
aS'0_0'
p762
aS'0_0'
p763
aS'0_0'
p764
aS'0_0'
p765
aS'0_0'
p766
aS'0_0'
p767
aS'0_0'
p768
aS'0_0'
p769
aS'0_0'
p770
aS'0_0'
p771
aS'0_0'
p772
aS'X'
aS'X'
aS'X'
aS'X'
aS'X'
aS'X'
aS'3_0'
p773
aa(lp774
S'0_0'
p775
aS'0_0'
p776
aS'0_0'
p777
aS'0_0'
p778
aS'0_0'
p779
aS'0_0'
p780
aS'0_0'
p781
aS'0_0'
p782
aS'0_0'
p783
aS'0_0'
p784
aS'0_0'
p785
aS'0_0'
p786
aS'0_0'
p787
aS'X'
aS'X'
aS'X'
aS'X'
aS'X'
aS'X'
aS'3_0'
p788
aa(lp789
S'0_0'
p790
aS'0_0'
p791
aS'0_0'
p792
aS'0_0'
p793
aS'0_0'
p794
aS'0_0'
p795
aS'0_0'
p796
aS'0_0'
p797
aS'0_0'
p798
aS'0_0'
p799
aS'0_0'
p800
aS'0_0'
p801
aS'3_0'
p802
aS'3_0'
p803
aS'3_0'
p804
aS'3_0'
p805
aS'3_0'
p806
aS'3_0'
p807
aS'3_0'
p808
aS'3_0'
p809
aasI9
(lp810
(lp811
S'X'
aS'0_2'
p812
aS'@'
aS'@'
aS'@'
aS'@'
aS'@'
aS'@'
aS'@'
aS'@'
aS'@'
aS'@'
aS'@'
aS'@'
aS'@'
aS'@'
aS'@'
aS'@'
aS'@'
aS'@'
aa(lp813
S'0_1'
p814
aS'0_0'
p815
aS'0_2'
p816
aS'@'
aS'@'
aS'@'
aS'@'
aS'@'
aS'@'
aS'@'
aS'@'
aS'@'
aS'@'
aS'@'
aS'@'
aS'@'
aS'@'
aS'@'
aS'@'
aS'@'
aa(lp817
S'0_1'
p818
aS'0_0'
p819
aS'0_0'
p820
aS'@'
aS'@'
aS'@'
aS'@'
aS'@'
aS'@'
aS'@'
aS'@'
aS'@'
aS'@'
aS'@'
aS'@'
aS'@'
aS'@'
aS'@'
aS'@'
aS'@'
aa(lp821
S'0_1'
p822
aS'0_0'
p823
aS'0_0'
p824
aS'@'
aS'@'
aS'@'
aS'@'
aS'@'
aS'@'
aS'@'
aS'@'
aS'@'
aS'@'
aS'@'
aS'@'
aS'@'
aS'@'
aS'@'
aS'@'
aS'@'
aa(lp825
S'0_1'
p826
aS'0_0'
p827
aS'0_0'
p828
aS'@'
aS'@'
aS'@'
aS'@'
aS'@'
aS'@'
aS'@'
aS'@'
aS'@'
aS'@'
aS'@'
aS'@'
aS'@'
aS'@'
aS'@'
aS'@'
aS'@'
aa(lp829
S'0_1'
p830
aS'0_0'
p831
aS'@'
aS'@'
aS'@'
aS'@'
aS'@'
aS'@'
aS'@'
aS'@'
aS'@'
aS'@'
aS'@'
aS'@'
aS'@'
aS'@'
aS'@'
aS'@'
aS'@'
aS'@'
aa(lp832
S'0_1'
p833
aS'0_0'
p834
aS'@'
aS'@'
aS'@'
aS'@'
aS'@'
aS'@'
aS'@'
aS'@'
aS'@'
aS'@'
aS'@'
aS'@'
aS'@'
aS'@'
aS'@'
aS'@'
aS'@'
aS'@'
aa(lp835
S'0_1'
p836
aS'0_0'
p837
aS'@'
aS'@'
aS'@'
aS'@'
aS'@'
aS'@'
aS'@'
aS'@'
aS'@'
aS'@'
aS'@'
aS'@'
aS'@'
aS'@'
aS'@'
aS'@'
aS'@'
aS'@'
aa(lp838
S'0_1'
p839
aS'@'
aS'@'
aS'@'
aS'@'
aS'@'
aS'@'
aS'@'
aS'@'
aS'@'
aS'@'
aS'@'
aS'@'
aS'@'
aS'@'
aS'@'
aS'@'
aS'@'
aS'@'
aS'@'
aa(lp840
S'@'
aS'@'
aS'@'
aS'@'
aS'@'
aS'@'
aS'@'
aS'@'
aS'@'
aS'@'
aS'@'
aS'@'
aS'@'
aS'@'
aS'@'
aS'@'
aS'@'
aS'@'
aS'@'
aS'@'
aa(lp841
S'@'
aS'@'
aS'@'
aS'@'
aS'@'
aS'@'
aS'@'
aS'@'
aS'@'
aS'@'
aS'@'
aS'@'
aS'@'
aS'@'
aS'@'
aS'@'
aS'@'
aS'@'
aS'@'
aS'@'
aa(lp842
S'@'
aS'@'
aS'@'
aS'@'
aS'@'
aS'@'
aS'@'
aS'@'
aS'@'
aS'@'
aS'@'
aS'@'
aS'@'
aS'@'
aS'@'
aS'@'
aS'@'
aS'@'
aS'@'
aS'@'
aa(lp843
S'@'
aS'@'
aS'@'
aS'@'
aS'@'
aS'@'
aS'@'
aS'@'
aS'@'
aS'@'
aS'@'
aS'@'
aS'@'
aS'@'
aS'@'
aS'@'
aS'@'
aS'@'
aS'@'
aS'@'
aa(lp844
S'@'
aS'@'
aS'@'
aS'@'
aS'@'
aS'@'
aS'@'
aS'@'
aS'@'
aS'@'
aS'@'
aS'@'
aS'@'
aS'@'
aS'@'
aS'@'
aS'@'
aS'@'
aS'0_3'
p845
aS'0_2'
p846
aa(lp847
S'@'
aS'@'
aS'@'
aS'@'
aS'@'
aS'@'
aS'@'
aS'@'
aS'@'
aS'@'
aS'@'
aS'@'
aS'@'
aS'@'
aS'@'
aS'0_3'
p848
aS'0_2'
p849
aS'0_2'
p850
aS'0_0'
p851
aS'0_0'
p852
aa(lp853
S'@'
aS'@'
aS'@'
aS'@'
aS'@'
aS'@'
aS'@'
aS'@'
aS'@'
aS'@'
aS'@'
aS'@'
aS'@'
aS'@'
aS'0_3'
p854
aS'0_0'
p855
aS'0_0'
p856
aS'0_0'
p857
aS'0_0'
p858
aS'0_0'
p859
aa(lp860
S'@'
aS'@'
aS'@'
aS'@'
aS'@'
aS'@'
aS'@'
aS'@'
aS'@'
aS'@'
aS'@'
aS'@'
aS'@'
aS'0_3'
p861
aS'0_0'
p862
aS'0_0'
p863
aS'0_0'
p864
aS'0_0'
p865
aS'0_0'
p866
aS'0_0'
p867
aa(lp868
S'@'
aS'@'
aS'@'
aS'@'
aS'@'
aS'@'
aS'@'
aS'@'
aS'@'
aS'@'
aS'@'
aS'@'
aS'@'
aS'0_1'
p869
aS'0_0'
p870
aS'0_0'
p871
aS'0_0'
p872
aS'0_0'
p873
aS'0_0'
p874
aS'0_0'
p875
aa(lp876
S'@'
aS'@'
aS'@'
aS'@'
aS'@'
aS'@'
aS'@'
aS'@'
aS'@'
aS'@'
aS'@'
aS'@'
aS'@'
aS'0_1'
p877
aS'0_0'
p878
aS'0_0'
p879
aS'0_0'
p880
aS'0_0'
p881
aS'0_0'
p882
aS'0_0'
p883
aa(lp884
S'@'
aS'@'
aS'@'
aS'@'
aS'@'
aS'@'
aS'@'
aS'@'
aS'@'
aS'@'
aS'@'
aS'@'
aS'0_3'
p885
aS'0_0'
p886
aS'0_0'
p887
aS'0_0'
p888
aS'0_0'
p889
aS'0_0'
p890
aS'0_0'
p891
aS'0_0'
p892
aasI10
(lp893
(lp894
S'0_3'
p895
aS'@'
aS'@'
aS'@'
aS'@'
aS'@'
aS'@'
aS'@'
aS'@'
aS'@'
aS'@'
aS'@'
aS'@'
aS'@'
aS'@'
aS'@'
aS'@'
aS'@'
aS'@'
aS'@'
aa(lp896
S'@'
aS'@'
aS'@'
aS'@'
aS'@'
aS'@'
aS'@'
aS'@'
aS'@'
aS'@'
aS'@'
aS'@'
aS'@'
aS'@'
aS'@'
aS'@'
aS'@'
aS'@'
aS'@'
aS'@'
aa(lp897
S'@'
aS'@'
aS'@'
aS'@'
aS'@'
aS'@'
aS'@'
aS'@'
aS'@'
aS'@'
aS'@'
aS'@'
aS'@'
aS'@'
aS'@'
aS'@'
aS'@'
aS'@'
aS'@'
aS'@'
aa(lp898
S'@'
aS'@'
aS'@'
aS'@'
aS'@'
aS'@'
aS'@'
aS'@'
aS'@'
aS'@'
aS'@'
aS'@'
aS'@'
aS'@'
aS'@'
aS'@'
aS'@'
aS'@'
aS'@'
aS'@'
aa(lp899
S'@'
aS'@'
aS'@'
aS'@'
aS'@'
aS'@'
aS'@'
aS'@'
aS'@'
aS'@'
aS'@'
aS'@'
aS'@'
aS'@'
aS'@'
aS'@'
aS'@'
aS'@'
aS'@'
aS'@'
aa(lp900
S'@'
aS'@'
aS'@'
aS'@'
aS'@'
aS'@'
aS'@'
aS'@'
aS'@'
aS'@'
aS'@'
aS'@'
aS'@'
aS'@'
aS'@'
aS'@'
aS'@'
aS'@'
aS'@'
aS'@'
aa(lp901
S'@'
aS'@'
aS'@'
aS'@'
aS'@'
aS'@'
aS'@'
aS'@'
aS'@'
aS'@'
aS'@'
aS'@'
aS'@'
aS'@'
aS'@'
aS'@'
aS'@'
aS'@'
aS'@'
aS'@'
aa(lp902
S'@'
aS'@'
aS'@'
aS'@'
aS'@'
aS'@'
aS'@'
aS'@'
aS'@'
aS'@'
aS'@'
aS'@'
aS'@'
aS'@'
aS'@'
aS'@'
aS'@'
aS'@'
aS'@'
aS'@'
aa(lp903
S'@'
aS'@'
aS'@'
aS'@'
aS'@'
aS'@'
aS'@'
aS'@'
aS'@'
aS'@'
aS'@'
aS'@'
aS'@'
aS'@'
aS'@'
aS'@'
aS'@'
aS'@'
aS'@'
aS'@'
aa(lp904
S'@'
aS'@'
aS'@'
aS'@'
aS'@'
aS'@'
aS'@'
aS'@'
aS'@'
aS'@'
aS'@'
aS'@'
aS'@'
aS'@'
aS'@'
aS'@'
aS'@'
aS'@'
aS'@'
aS'@'
aa(lp905
S'@'
aS'@'
aS'@'
aS'@'
aS'@'
aS'@'
aS'@'
aS'@'
aS'@'
aS'@'
aS'@'
aS'@'
aS'@'
aS'@'
aS'@'
aS'@'
aS'@'
aS'@'
aS'@'
aS'@'
aa(lp906
S'@'
aS'@'
aS'@'
aS'@'
aS'@'
aS'@'
aS'@'
aS'@'
aS'@'
aS'@'
aS'@'
aS'@'
aS'@'
aS'@'
aS'@'
aS'@'
aS'@'
aS'@'
aS'@'
aS'@'
aa(lp907
S'@'
aS'@'
aS'@'
aS'@'
aS'@'
aS'@'
aS'@'
aS'@'
aS'@'
aS'@'
aS'@'
aS'@'
aS'@'
aS'@'
aS'@'
aS'@'
aS'@'
aS'@'
aS'@'
aS'@'
aa(lp908
S'@'
aS'@'
aS'@'
aS'@'
aS'@'
aS'@'
aS'@'
aS'@'
aS'@'
aS'@'
aS'@'
aS'@'
aS'@'
aS'@'
aS'@'
aS'@'
aS'@'
aS'@'
aS'@'
aS'@'
aa(lp909
S'@'
aS'@'
aS'@'
aS'@'
aS'@'
aS'@'
aS'@'
aS'@'
aS'@'
aS'@'
aS'@'
aS'@'
aS'@'
aS'@'
aS'@'
aS'@'
aS'@'
aS'@'
aS'@'
aS'@'
aa(lp910
S'@'
aS'@'
aS'@'
aS'@'
aS'@'
aS'@'
aS'@'
aS'@'
aS'@'
aS'@'
aS'@'
aS'@'
aS'@'
aS'@'
aS'@'
aS'@'
aS'@'
aS'@'
aS'@'
aS'@'
aa(lp911
S'@'
aS'@'
aS'@'
aS'@'
aS'@'
aS'@'
aS'@'
aS'@'
aS'@'
aS'@'
aS'@'
aS'@'
aS'@'
aS'@'
aS'@'
aS'@'
aS'@'
aS'@'
aS'@'
aS'@'
aa(lp912
S'@'
aS'@'
aS'@'
aS'@'
aS'@'
aS'@'
aS'@'
aS'@'
aS'@'
aS'@'
aS'@'
aS'@'
aS'@'
aS'@'
aS'@'
aS'@'
aS'@'
aS'@'
aS'@'
aS'@'
aa(lp913
S'@'
aS'@'
aS'@'
aS'@'
aS'@'
aS'@'
aS'@'
aS'@'
aS'@'
aS'@'
aS'@'
aS'@'
aS'@'
aS'@'
aS'@'
aS'@'
aS'@'
aS'@'
aS'@'
aS'@'
aa(lp914
S'@'
aS'@'
aS'@'
aS'@'
aS'@'
aS'@'
aS'@'
aS'@'
aS'@'
aS'@'
aS'@'
aS'@'
aS'@'
aS'@'
aS'@'
aS'@'
aS'@'
aS'@'
aS'@'
aS'@'
aasI11
(lp915
(lp916
S'@'
aS'@'
aS'@'
aS'@'
aS'@'
aS'@'
aS'@'
aS'@'
aS'@'
aS'@'
aS'@'
aS'@'
aS'@'
aS'@'
aS'@'
aS'@'
aS'@'
aS'@'
aS'@'
aS'@'
aa(lp917
S'@'
aS'@'
aS'@'
aS'@'
aS'@'
aS'@'
aS'@'
aS'@'
aS'@'
aS'@'
aS'@'
aS'@'
aS'@'
aS'@'
aS'@'
aS'@'
aS'@'
aS'@'
aS'@'
aS'@'
aa(lp918
S'@'
aS'@'
aS'@'
aS'@'
aS'@'
aS'@'
aS'@'
aS'@'
aS'@'
aS'@'
aS'@'
aS'@'
aS'@'
aS'@'
aS'@'
aS'@'
aS'@'
aS'@'
aS'@'
aS'@'
aa(lp919
S'@'
aS'@'
aS'@'
aS'@'
aS'@'
aS'@'
aS'@'
aS'@'
aS'@'
aS'@'
aS'@'
aS'@'
aS'@'
aS'@'
aS'@'
aS'@'
aS'@'
aS'@'
aS'@'
aS'@'
aa(lp920
S'@'
aS'@'
aS'@'
aS'@'
aS'@'
aS'@'
aS'@'
aS'@'
aS'@'
aS'@'
aS'@'
aS'@'
aS'@'
aS'@'
aS'@'
aS'@'
aS'@'
aS'@'
aS'@'
aS'@'
aa(lp921
S'@'
aS'@'
aS'@'
aS'@'
aS'@'
aS'@'
aS'@'
aS'@'
aS'@'
aS'@'
aS'@'
aS'@'
aS'@'
aS'@'
aS'@'
aS'@'
aS'@'
aS'@'
aS'@'
aS'@'
aa(lp922
S'@'
aS'@'
aS'@'
aS'@'
aS'@'
aS'@'
aS'@'
aS'@'
aS'@'
aS'@'
aS'@'
aS'@'
aS'@'
aS'@'
aS'@'
aS'@'
aS'@'
aS'@'
aS'@'
aS'@'
aa(lp923
S'@'
aS'@'
aS'@'
aS'@'
aS'@'
aS'@'
aS'@'
aS'@'
aS'@'
aS'@'
aS'@'
aS'@'
aS'@'
aS'@'
aS'@'
aS'@'
aS'@'
aS'@'
aS'@'
aS'@'
aa(lp924
S'@'
aS'@'
aS'@'
aS'@'
aS'@'
aS'@'
aS'@'
aS'@'
aS'@'
aS'@'
aS'@'
aS'@'
aS'@'
aS'@'
aS'@'
aS'@'
aS'@'
aS'@'
aS'@'
aS'@'
aa(lp925
S'@'
aS'@'
aS'@'
aS'@'
aS'@'
aS'@'
aS'@'
aS'@'
aS'@'
aS'@'
aS'@'
aS'@'
aS'@'
aS'@'
aS'@'
aS'@'
aS'@'
aS'@'
aS'@'
aS'@'
aa(lp926
S'@'
aS'@'
aS'@'
aS'@'
aS'@'
aS'@'
aS'@'
aS'@'
aS'@'
aS'@'
aS'@'
aS'@'
aS'@'
aS'@'
aS'@'
aS'@'
aS'@'
aS'@'
aS'@'
aS'@'
aa(lp927
S'@'
aS'@'
aS'@'
aS'@'
aS'@'
aS'@'
aS'@'
aS'@'
aS'@'
aS'@'
aS'@'
aS'@'
aS'@'
aS'@'
aS'@'
aS'@'
aS'@'
aS'@'
aS'@'
aS'@'
aa(lp928
S'@'
aS'@'
aS'@'
aS'@'
aS'@'
aS'@'
aS'@'
aS'@'
aS'@'
aS'@'
aS'@'
aS'@'
aS'@'
aS'@'
aS'@'
aS'@'
aS'@'
aS'@'
aS'@'
aS'@'
aa(lp929
S'@'
aS'@'
aS'@'
aS'@'
aS'@'
aS'@'
aS'@'
aS'@'
aS'@'
aS'@'
aS'@'
aS'@'
aS'@'
aS'@'
aS'@'
aS'@'
aS'@'
aS'@'
aS'@'
aS'@'
aa(lp930
S'@'
aS'@'
aS'@'
aS'@'
aS'@'
aS'@'
aS'@'
aS'@'
aS'@'
aS'@'
aS'@'
aS'@'
aS'@'
aS'@'
aS'@'
aS'@'
aS'@'
aS'@'
aS'@'
aS'@'
aa(lp931
S'@'
aS'@'
aS'@'
aS'@'
aS'@'
aS'@'
aS'@'
aS'@'
aS'@'
aS'@'
aS'@'
aS'@'
aS'@'
aS'@'
aS'@'
aS'@'
aS'@'
aS'@'
aS'@'
aS'@'
aa(lp932
S'@'
aS'@'
aS'@'
aS'@'
aS'@'
aS'@'
aS'@'
aS'@'
aS'@'
aS'@'
aS'@'
aS'@'
aS'@'
aS'@'
aS'@'
aS'@'
aS'@'
aS'@'
aS'@'
aS'@'
aa(lp933
S'@'
aS'@'
aS'@'
aS'@'
aS'@'
aS'@'
aS'@'
aS'@'
aS'@'
aS'@'
aS'@'
aS'@'
aS'@'
aS'@'
aS'@'
aS'@'
aS'@'
aS'@'
aS'@'
aS'@'
aa(lp934
S'@'
aS'@'
aS'@'
aS'@'
aS'@'
aS'@'
aS'@'
aS'@'
aS'@'
aS'@'
aS'@'
aS'@'
aS'@'
aS'@'
aS'@'
aS'@'
aS'@'
aS'@'
aS'@'
aS'@'
aa(lp935
S'@'
aS'@'
aS'@'
aS'@'
aS'@'
aS'@'
aS'@'
aS'@'
aS'@'
aS'@'
aS'@'
aS'@'
aS'@'
aS'@'
aS'@'
aS'@'
aS'@'
aS'@'
aS'@'
aS'@'
aasI12
(lp936
(lp937
S'@'
aS'@'
aS'@'
aS'@'
aS'@'
aS'@'
aS'@'
aS'@'
aS'@'
aS'@'
aS'@'
aS'@'
aS'@'
aS'@'
aS'@'
aS'@'
aS'@'
aS'@'
aS'@'
aS'@'
aa(lp938
S'@'
aS'@'
aS'@'
aS'@'
aS'@'
aS'@'
aS'@'
aS'@'
aS'@'
aS'@'
aS'@'
aS'@'
aS'@'
aS'@'
aS'@'
aS'@'
aS'@'
aS'@'
aS'@'
aS'@'
aa(lp939
S'@'
aS'@'
aS'@'
aS'@'
aS'@'
aS'@'
aS'@'
aS'@'
aS'@'
aS'@'
aS'@'
aS'@'
aS'@'
aS'@'
aS'@'
aS'@'
aS'@'
aS'@'
aS'@'
aS'@'
aa(lp940
S'@'
aS'@'
aS'@'
aS'@'
aS'@'
aS'@'
aS'@'
aS'@'
aS'@'
aS'@'
aS'@'
aS'@'
aS'@'
aS'@'
aS'@'
aS'@'
aS'@'
aS'@'
aS'@'
aS'@'
aa(lp941
S'@'
aS'@'
aS'@'
aS'@'
aS'@'
aS'@'
aS'@'
aS'@'
aS'@'
aS'@'
aS'@'
aS'@'
aS'@'
aS'@'
aS'@'
aS'@'
aS'@'
aS'@'
aS'@'
aS'@'
aa(lp942
S'@'
aS'@'
aS'@'
aS'@'
aS'@'
aS'@'
aS'@'
aS'@'
aS'@'
aS'@'
aS'@'
aS'@'
aS'@'
aS'@'
aS'@'
aS'@'
aS'@'
aS'@'
aS'@'
aS'@'
aa(lp943
S'@'
aS'@'
aS'@'
aS'@'
aS'@'
aS'@'
aS'@'
aS'@'
aS'@'
aS'@'
aS'@'
aS'@'
aS'@'
aS'@'
aS'@'
aS'@'
aS'@'
aS'@'
aS'@'
aS'@'
aa(lp944
S'@'
aS'@'
aS'@'
aS'@'
aS'@'
aS'@'
aS'@'
aS'@'
aS'@'
aS'@'
aS'@'
aS'@'
aS'@'
aS'@'
aS'@'
aS'@'
aS'@'
aS'@'
aS'@'
aS'@'
aa(lp945
S'@'
aS'@'
aS'@'
aS'@'
aS'@'
aS'@'
aS'@'
aS'@'
aS'@'
aS'@'
aS'@'
aS'@'
aS'@'
aS'@'
aS'@'
aS'@'
aS'@'
aS'@'
aS'@'
aS'@'
aa(lp946
S'@'
aS'@'
aS'@'
aS'@'
aS'@'
aS'@'
aS'@'
aS'@'
aS'@'
aS'@'
aS'@'
aS'@'
aS'@'
aS'@'
aS'@'
aS'@'
aS'@'
aS'@'
aS'@'
aS'@'
aa(lp947
S'@'
aS'@'
aS'@'
aS'@'
aS'@'
aS'@'
aS'@'
aS'@'
aS'@'
aS'@'
aS'@'
aS'@'
aS'@'
aS'@'
aS'@'
aS'@'
aS'@'
aS'@'
aS'@'
aS'@'
aa(lp948
S'@'
aS'@'
aS'@'
aS'@'
aS'@'
aS'@'
aS'@'
aS'@'
aS'@'
aS'@'
aS'@'
aS'@'
aS'@'
aS'@'
aS'@'
aS'@'
aS'@'
aS'@'
aS'@'
aS'@'
aa(lp949
S'@'
aS'@'
aS'@'
aS'@'
aS'@'
aS'@'
aS'@'
aS'@'
aS'@'
aS'@'
aS'@'
aS'@'
aS'@'
aS'@'
aS'@'
aS'@'
aS'@'
aS'@'
aS'@'
aS'@'
aa(lp950
S'@'
aS'@'
aS'@'
aS'@'
aS'@'
aS'@'
aS'@'
aS'@'
aS'@'
aS'@'
aS'@'
aS'@'
aS'@'
aS'@'
aS'@'
aS'@'
aS'@'
aS'@'
aS'@'
aS'@'
aa(lp951
S'@'
aS'@'
aS'@'
aS'@'
aS'@'
aS'@'
aS'@'
aS'@'
aS'@'
aS'@'
aS'@'
aS'@'
aS'@'
aS'@'
aS'@'
aS'@'
aS'@'
aS'@'
aS'@'
aS'@'
aa(lp952
S'@'
aS'@'
aS'@'
aS'@'
aS'@'
aS'@'
aS'@'
aS'@'
aS'@'
aS'@'
aS'@'
aS'@'
aS'@'
aS'@'
aS'@'
aS'@'
aS'@'
aS'@'
aS'@'
aS'@'
aa(lp953
S'@'
aS'@'
aS'@'
aS'@'
aS'@'
aS'@'
aS'@'
aS'@'
aS'@'
aS'@'
aS'@'
aS'@'
aS'@'
aS'@'
aS'@'
aS'@'
aS'@'
aS'@'
aS'@'
aS'@'
aa(lp954
S'@'
aS'@'
aS'@'
aS'@'
aS'@'
aS'@'
aS'@'
aS'@'
aS'@'
aS'@'
aS'@'
aS'@'
aS'@'
aS'@'
aS'@'
aS'@'
aS'@'
aS'@'
aS'@'
aS'@'
aa(lp955
S'@'
aS'@'
aS'@'
aS'@'
aS'@'
aS'@'
aS'@'
aS'@'
aS'@'
aS'@'
aS'@'
aS'@'
aS'@'
aS'@'
aS'@'
aS'@'
aS'@'
aS'@'
aS'@'
aS'@'
aa(lp956
S'@'
aS'@'
aS'@'
aS'@'
aS'@'
aS'@'
aS'@'
aS'@'
aS'@'
aS'@'
aS'@'
aS'@'
aS'@'
aS'@'
aS'@'
aS'@'
aS'@'
aS'@'
aS'@'
aS'@'
aasI13
(lp957
(lp958
S'@'
aS'@'
aS'@'
aS'@'
aS'@'
aS'@'
aS'@'
aS'@'
aS'@'
aS'@'
aS'@'
aS'@'
aS'@'
aS'@'
aS'@'
aS'@'
aS'@'
aS'@'
aS'@'
aS'@'
aa(lp959
S'@'
aS'@'
aS'@'
aS'@'
aS'@'
aS'@'
aS'@'
aS'@'
aS'@'
aS'@'
aS'@'
aS'@'
aS'@'
aS'@'
aS'@'
aS'@'
aS'@'
aS'@'
aS'@'
aS'@'
aa(lp960
S'@'
aS'@'
aS'@'
aS'@'
aS'@'
aS'@'
aS'@'
aS'@'
aS'@'
aS'@'
aS'@'
aS'@'
aS'@'
aS'@'
aS'@'
aS'@'
aS'@'
aS'@'
aS'@'
aS'@'
aa(lp961
S'@'
aS'@'
aS'@'
aS'@'
aS'@'
aS'@'
aS'@'
aS'@'
aS'@'
aS'@'
aS'@'
aS'@'
aS'@'
aS'@'
aS'@'
aS'@'
aS'@'
aS'@'
aS'@'
aS'@'
aa(lp962
S'@'
aS'@'
aS'@'
aS'@'
aS'@'
aS'@'
aS'@'
aS'@'
aS'@'
aS'@'
aS'@'
aS'@'
aS'@'
aS'@'
aS'@'
aS'@'
aS'@'
aS'@'
aS'@'
aS'@'
aa(lp963
S'@'
aS'@'
aS'@'
aS'@'
aS'@'
aS'@'
aS'@'
aS'@'
aS'@'
aS'@'
aS'@'
aS'@'
aS'@'
aS'@'
aS'@'
aS'@'
aS'@'
aS'@'
aS'@'
aS'@'
aa(lp964
S'@'
aS'@'
aS'@'
aS'@'
aS'@'
aS'@'
aS'@'
aS'@'
aS'@'
aS'@'
aS'@'
aS'@'
aS'@'
aS'@'
aS'@'
aS'@'
aS'@'
aS'@'
aS'@'
aS'@'
aa(lp965
S'@'
aS'@'
aS'@'
aS'@'
aS'@'
aS'@'
aS'@'
aS'@'
aS'@'
aS'@'
aS'@'
aS'@'
aS'@'
aS'@'
aS'@'
aS'@'
aS'@'
aS'@'
aS'@'
aS'@'
aa(lp966
S'@'
aS'@'
aS'@'
aS'@'
aS'@'
aS'@'
aS'@'
aS'@'
aS'@'
aS'@'
aS'@'
aS'@'
aS'@'
aS'@'
aS'@'
aS'@'
aS'@'
aS'@'
aS'@'
aS'@'
aa(lp967
S'@'
aS'@'
aS'@'
aS'@'
aS'@'
aS'@'
aS'@'
aS'@'
aS'@'
aS'@'
aS'@'
aS'@'
aS'@'
aS'@'
aS'@'
aS'@'
aS'@'
aS'@'
aS'@'
aS'@'
aa(lp968
S'@'
aS'@'
aS'@'
aS'@'
aS'@'
aS'@'
aS'@'
aS'@'
aS'@'
aS'@'
aS'@'
aS'@'
aS'@'
aS'@'
aS'@'
aS'@'
aS'@'
aS'@'
aS'@'
aS'@'
aa(lp969
S'@'
aS'@'
aS'@'
aS'@'
aS'@'
aS'@'
aS'@'
aS'@'
aS'@'
aS'@'
aS'@'
aS'@'
aS'@'
aS'@'
aS'@'
aS'@'
aS'@'
aS'@'
aS'@'
aS'@'
aa(lp970
S'@'
aS'@'
aS'@'
aS'@'
aS'@'
aS'@'
aS'@'
aS'@'
aS'@'
aS'@'
aS'@'
aS'@'
aS'@'
aS'@'
aS'@'
aS'@'
aS'@'
aS'@'
aS'@'
aS'@'
aa(lp971
S'@'
aS'@'
aS'@'
aS'@'
aS'@'
aS'@'
aS'@'
aS'@'
aS'@'
aS'@'
aS'@'
aS'@'
aS'@'
aS'@'
aS'@'
aS'@'
aS'@'
aS'@'
aS'@'
aS'@'
aa(lp972
S'@'
aS'@'
aS'@'
aS'@'
aS'@'
aS'@'
aS'@'
aS'@'
aS'@'
aS'@'
aS'@'
aS'@'
aS'@'
aS'@'
aS'@'
aS'@'
aS'@'
aS'@'
aS'@'
aS'@'
aa(lp973
S'@'
aS'@'
aS'@'
aS'@'
aS'@'
aS'@'
aS'@'
aS'@'
aS'@'
aS'@'
aS'@'
aS'@'
aS'@'
aS'@'
aS'@'
aS'@'
aS'@'
aS'@'
aS'@'
aS'@'
aa(lp974
S'@'
aS'@'
aS'@'
aS'@'
aS'@'
aS'@'
aS'@'
aS'@'
aS'@'
aS'@'
aS'@'
aS'@'
aS'@'
aS'@'
aS'@'
aS'@'
aS'@'
aS'@'
aS'@'
aS'@'
aa(lp975
S'@'
aS'@'
aS'@'
aS'@'
aS'@'
aS'@'
aS'@'
aS'@'
aS'@'
aS'@'
aS'@'
aS'@'
aS'@'
aS'@'
aS'@'
aS'@'
aS'@'
aS'@'
aS'@'
aS'@'
aa(lp976
S'@'
aS'@'
aS'@'
aS'@'
aS'@'
aS'@'
aS'@'
aS'@'
aS'@'
aS'@'
aS'@'
aS'@'
aS'@'
aS'@'
aS'@'
aS'@'
aS'@'
aS'@'
aS'@'
aS'@'
aa(lp977
S'@'
aS'@'
aS'@'
aS'@'
aS'@'
aS'@'
aS'@'
aS'@'
aS'@'
aS'@'
aS'@'
aS'@'
aS'@'
aS'@'
aS'@'
aS'@'
aS'@'
aS'@'
aS'@'
aS'@'
aasI14
(lp978
(lp979
S'@'
aS'@'
aS'@'
aS'@'
aS'@'
aS'@'
aS'@'
aS'@'
aS'@'
aS'@'
aS'@'
aS'@'
aS'@'
aS'@'
aS'@'
aS'@'
aS'@'
aS'@'
aS'@'
aS'@'
aa(lp980
S'@'
aS'@'
aS'@'
aS'@'
aS'@'
aS'@'
aS'@'
aS'@'
aS'@'
aS'@'
aS'@'
aS'@'
aS'@'
aS'@'
aS'@'
aS'@'
aS'@'
aS'@'
aS'@'
aS'@'
aa(lp981
S'@'
aS'@'
aS'@'
aS'@'
aS'@'
aS'@'
aS'@'
aS'@'
aS'@'
aS'@'
aS'@'
aS'@'
aS'@'
aS'@'
aS'@'
aS'@'
aS'@'
aS'@'
aS'@'
aS'@'
aa(lp982
S'@'
aS'@'
aS'@'
aS'@'
aS'@'
aS'@'
aS'@'
aS'@'
aS'@'
aS'@'
aS'@'
aS'@'
aS'@'
aS'@'
aS'@'
aS'@'
aS'@'
aS'@'
aS'@'
aS'@'
aa(lp983
S'@'
aS'@'
aS'@'
aS'@'
aS'@'
aS'@'
aS'@'
aS'@'
aS'@'
aS'@'
aS'@'
aS'@'
aS'@'
aS'@'
aS'@'
aS'@'
aS'@'
aS'@'
aS'@'
aS'@'
aa(lp984
S'@'
aS'@'
aS'@'
aS'@'
aS'@'
aS'@'
aS'@'
aS'@'
aS'@'
aS'@'
aS'@'
aS'@'
aS'@'
aS'@'
aS'@'
aS'@'
aS'@'
aS'@'
aS'@'
aS'@'
aa(lp985
S'@'
aS'@'
aS'@'
aS'@'
aS'@'
aS'@'
aS'@'
aS'@'
aS'@'
aS'@'
aS'@'
aS'@'
aS'@'
aS'@'
aS'@'
aS'@'
aS'@'
aS'@'
aS'@'
aS'@'
aa(lp986
S'@'
aS'@'
aS'@'
aS'@'
aS'@'
aS'@'
aS'@'
aS'@'
aS'@'
aS'@'
aS'@'
aS'@'
aS'@'
aS'@'
aS'@'
aS'@'
aS'@'
aS'@'
aS'@'
aS'@'
aa(lp987
S'@'
aS'@'
aS'@'
aS'@'
aS'@'
aS'@'
aS'@'
aS'@'
aS'@'
aS'@'
aS'@'
aS'@'
aS'@'
aS'@'
aS'@'
aS'@'
aS'@'
aS'@'
aS'@'
aS'@'
aa(lp988
S'@'
aS'@'
aS'@'
aS'@'
aS'@'
aS'@'
aS'@'
aS'@'
aS'@'
aS'@'
aS'@'
aS'@'
aS'@'
aS'@'
aS'@'
aS'@'
aS'@'
aS'@'
aS'@'
aS'@'
aa(lp989
S'@'
aS'@'
aS'@'
aS'@'
aS'@'
aS'@'
aS'@'
aS'@'
aS'@'
aS'@'
aS'@'
aS'@'
aS'@'
aS'@'
aS'@'
aS'@'
aS'@'
aS'@'
aS'@'
aS'@'
aa(lp990
S'@'
aS'@'
aS'@'
aS'@'
aS'@'
aS'@'
aS'@'
aS'@'
aS'@'
aS'@'
aS'@'
aS'@'
aS'@'
aS'@'
aS'@'
aS'@'
aS'@'
aS'@'
aS'@'
aS'@'
aa(lp991
S'@'
aS'@'
aS'@'
aS'@'
aS'@'
aS'@'
aS'@'
aS'@'
aS'@'
aS'@'
aS'@'
aS'@'
aS'@'
aS'@'
aS'@'
aS'@'
aS'@'
aS'@'
aS'@'
aS'@'
aa(lp992
S'@'
aS'@'
aS'@'
aS'@'
aS'@'
aS'@'
aS'@'
aS'@'
aS'@'
aS'@'
aS'@'
aS'@'
aS'@'
aS'@'
aS'@'
aS'@'
aS'@'
aS'@'
aS'@'
aS'@'
aa(lp993
S'@'
aS'@'
aS'@'
aS'@'
aS'@'
aS'@'
aS'@'
aS'@'
aS'@'
aS'@'
aS'@'
aS'@'
aS'@'
aS'@'
aS'@'
aS'@'
aS'@'
aS'@'
aS'@'
aS'@'
aa(lp994
S'@'
aS'@'
aS'@'
aS'@'
aS'@'
aS'@'
aS'@'
aS'@'
aS'@'
aS'@'
aS'@'
aS'@'
aS'@'
aS'@'
aS'@'
aS'@'
aS'@'
aS'@'
aS'@'
aS'@'
aa(lp995
S'@'
aS'@'
aS'@'
aS'@'
aS'@'
aS'@'
aS'@'
aS'@'
aS'@'
aS'@'
aS'@'
aS'@'
aS'@'
aS'@'
aS'@'
aS'@'
aS'@'
aS'@'
aS'@'
aS'@'
aa(lp996
S'@'
aS'@'
aS'@'
aS'@'
aS'@'
aS'@'
aS'@'
aS'@'
aS'@'
aS'@'
aS'@'
aS'@'
aS'@'
aS'@'
aS'@'
aS'@'
aS'@'
aS'@'
aS'@'
aS'@'
aa(lp997
S'@'
aS'@'
aS'@'
aS'@'
aS'@'
aS'@'
aS'@'
aS'@'
aS'@'
aS'@'
aS'@'
aS'@'
aS'@'
aS'@'
aS'@'
aS'@'
aS'@'
aS'@'
aS'@'
aS'@'
aa(lp998
S'@'
aS'@'
aS'@'
aS'@'
aS'@'
aS'@'
aS'@'
aS'@'
aS'@'
aS'@'
aS'@'
aS'@'
aS'@'
aS'@'
aS'@'
aS'@'
aS'@'
aS'@'
aS'@'
aS'@'
aas.