(dp1
I0
(lp2
(lp3
S'X'
aS'X'
aS'X'
aS'X'
aS'X'
aS'X'
aS'X'
aS'X'
aS'X'
aS'X'
aS'X'
aS'X'
aS'X'
aS'X'
aS'X'
aS'X'
aS'X'
aS'X'
aS'X'
aS'3_0'
p4
aa(lp5
S'X'
aS'X'
aS'X'
aS'X'
aS'X'
aS'X'
aS'X'
aS'X'
aS'X'
aS'X'
aS'X'
aS'X'
aS'X'
aS'X'
aS'X'
aS'X'
aS'X'
aS'X'
aS'X'
aS'3_0'
p6
aa(lp7
S'X'
aS'X'
aS'X'
aS'X'
aS'X'
aS'X'
aS'X'
aS'X'
aS'X'
aS'X'
aS'X'
aS'X'
aS'X'
aS'X'
aS'X'
aS'X'
aS'X'
aS'X'
aS'X'
aS'3_0'
p8
aa(lp9
S'X'
aS'X'
aS'X'
aS'X'
aS'X'
aS'X'
aS'X'
aS'X'
aS'X'
aS'X'
aS'X'
aS'X'
aS'X'
aS'X'
aS'X'
aS'X'
aS'X'
aS'X'
aS'X'
aS'3_0'
p10
aa(lp11
S'X'
aS'X'
aS'X'
aS'X'
aS'X'
aS'X'
aS'X'
aS'X'
aS'X'
aS'X'
aS'X'
aS'X'
aS'X'
aS'X'
aS'X'
aS'X'
aS'X'
aS'X'
aS'X'
aS'3_0'
p12
aa(lp13
S'X'
aS'X'
aS'X'
aS'X'
aS'X'
aS'X'
aS'X'
aS'X'
aS'X'
aS'X'
aS'X'
aS'X'
aS'X'
aS'X'
aS'X'
aS'X'
aS'X'
aS'X'
aS'X'
aS'3_0'
p14
aa(lp15
S'X'
aS'X'
aS'X'
aS'X'
aS'X'
aS'X'
aS'X'
aS'X'
aS'X'
aS'X'
aS'X'
aS'X'
aS'X'
aS'X'
aS'X'
aS'X'
aS'X'
aS'X'
aS'X'
aS'3_0'
p16
aa(lp17
S'X'
aS'X'
aS'X'
aS'X'
aS'X'
aS'X'
aS'X'
aS'X'
aS'X'
aS'X'
aS'X'
aS'X'
aS'X'
aS'X'
aS'X'
aS'X'
aS'X'
aS'X'
aS'X'
aS'3_0'
p18
aa(lp19
S'X'
aS'X'
aS'X'
aS'X'
aS'X'
aS'X'
aS'X'
aS'X'
aS'X'
aS'X'
aS'X'
aS'X'
aS'X'
aS'X'
aS'X'
aS'X'
aS'X'
aS'X'
aS'X'
aS'3_0'
p20
aa(lp21
S'X'
aS'X'
aS'X'
aS'X'
aS'X'
aS'X'
aS'X'
aS'X'
aS'X'
aS'X'
aS'X'
aS'X'
aS'X'
aS'X'
aS'X'
aS'X'
aS'X'
aS'X'
aS'X'
aS'3_0'
p22
aa(lp23
S'X'
aS'X'
aS'X'
aS'X'
aS'X'
aS'X'
aS'X'
aS'X'
aS'X'
aS'X'
aS'X'
aS'X'
aS'X'
aS'X'
aS'X'
aS'X'
aS'X'
aS'X'
aS'X'
aS'3_0'
p24
aa(lp25
S'X'
aS'X'
aS'X'
aS'X'
aS'X'
aS'X'
aS'X'
aS'X'
aS'X'
aS'X'
aS'X'
aS'X'
aS'X'
aS'X'
aS'X'
aS'X'
aS'X'
aS'X'
aS'X'
aS'3_0'
p26
aa(lp27
S'X'
aS'X'
aS'X'
aS'X'
aS'X'
aS'X'
aS'X'
aS'X'
aS'X'
aS'X'
aS'X'
aS'X'
aS'X'
aS'X'
aS'X'
aS'X'
aS'X'
aS'X'
aS'X'
aS'3_0'
p28
aa(lp29
S'X'
aS'X'
aS'X'
aS'X'
aS'X'
aS'X'
aS'X'
aS'X'
aS'X'
aS'X'
aS'X'
aS'X'
aS'X'
aS'X'
aS'X'
aS'X'
aS'X'
aS'X'
aS'X'
aS'3_0'
p30
aa(lp31
S'X'
aS'X'
aS'X'
aS'X'
aS'X'
aS'X'
aS'X'
aS'X'
aS'X'
aS'X'
aS'X'
aS'X'
aS'X'
aS'X'
aS'X'
aS'X'
aS'X'
aS'X'
aS'X'
aS'3_0'
p32
aa(lp33
S'X'
aS'X'
aS'X'
aS'X'
aS'X'
aS'X'
aS'X'
aS'X'
aS'X'
aS'X'
aS'X'
aS'X'
aS'X'
aS'X'
aS'X'
aS'X'
aS'X'
aS'X'
aS'X'
aS'3_0'
p34
aa(lp35
S'X'
aS'X'
aS'X'
aS'X'
aS'X'
aS'X'
aS'X'
aS'X'
aS'X'
aS'X'
aS'X'
aS'X'
aS'X'
aS'X'
aS'X'
aS'X'
aS'X'
aS'X'
aS'X'
aS'3_0'
p36
aa(lp37
S'X'
aS'X'
aS'X'
aS'X'
aS'X'
aS'X'
aS'X'
aS'X'
aS'X'
aS'X'
aS'X'
aS'X'
aS'X'
aS'X'
aS'X'
aS'X'
aS'X'
aS'X'
aS'X'
aS'3_0'
p38
aa(lp39
S'X'
aS'X'
aS'X'
aS'X'
aS'X'
aS'X'
aS'X'
aS'X'
aS'X'
aS'X'
aS'X'
aS'X'
aS'X'
aS'X'
aS'X'
aS'X'
aS'X'
aS'X'
aS'X'
aS'3_0'
p40
aa(lp41
S'3_0'
p42
aS'3_0'
p43
aS'3_0'
p44
aS'3_0'
p45
aS'3_0'
p46
aS'3_0'
p47
aS'3_0'
p48
aS'3_0'
p49
aS'3_0'
p50
aS'3_0'
p51
aS'3_0'
p52
aS'3_0'
p53
aS'3_0'
p54
aS'3_0'
p55
aS'3_0'
p56
aS'3_0'
p57
aS'3_0'
p58
aS'3_0'
p59
aS'3_0'
p60
aS'3_0'
p61
aasI1
(lp62
(lp63
S'X'
aS'X'
aS'X'
aS'X'
aS'X'
aS'X'
aS'X'
aS'X'
aS'X'
aS'X'
aS'X'
aS'X'
aS'X'
aS'X'
aS'X'
aS'X'
aS'X'
aS'X'
aS'X'
aS'3_0'
p64
aa(lp65
S'X'
aS'X'
aS'X'
aS'X'
aS'X'
aS'X'
aS'X'
aS'X'
aS'X'
aS'X'
aS'X'
aS'X'
aS'X'
aS'X'
aS'X'
aS'X'
aS'X'
aS'X'
aS'X'
aS'3_0'
p66
aa(lp67
S'X'
aS'X'
aS'X'
aS'X'
aS'X'
aS'X'
aS'X'
aS'X'
aS'X'
aS'X'
aS'X'
aS'X'
aS'X'
aS'X'
aS'X'
aS'X'
aS'X'
aS'X'
aS'X'
aS'3_0'
p68
aa(lp69
S'X'
aS'X'
aS'X'
aS'X'
aS'X'
aS'X'
aS'X'
aS'X'
aS'X'
aS'X'
aS'X'
aS'X'
aS'X'
aS'X'
aS'X'
aS'X'
aS'X'
aS'X'
aS'X'
aS'3_0'
p70
aa(lp71
S'X'
aS'X'
aS'X'
aS'X'
aS'X'
aS'X'
aS'X'
aS'X'
aS'X'
aS'X'
aS'X'
aS'X'
aS'X'
aS'X'
aS'X'
aS'X'
aS'X'
aS'X'
aS'X'
aS'3_0'
p72
aa(lp73
S'X'
aS'X'
aS'X'
aS'X'
aS'X'
aS'X'
aS'X'
aS'X'
aS'X'
aS'X'
aS'X'
aS'X'
aS'X'
aS'X'
aS'X'
aS'X'
aS'X'
aS'X'
aS'X'
aS'3_0'
p74
aa(lp75
S'X'
aS'X'
aS'X'
aS'X'
aS'X'
aS'X'
aS'X'
aS'X'
aS'X'
aS'X'
aS'X'
aS'X'
aS'X'
aS'X'
aS'X'
aS'X'
aS'X'
aS'X'
aS'X'
aS'3_0'
p76
aa(lp77
S'X'
aS'X'
aS'X'
aS'X'
aS'X'
aS'X'
aS'X'
aS'X'
aS'X'
aS'X'
aS'X'
aS'X'
aS'X'
aS'X'
aS'X'
aS'X'
aS'X'
aS'X'
aS'X'
aS'3_0'
p78
aa(lp79
S'X'
aS'X'
aS'X'
aS'X'
aS'X'
aS'X'
aS'X'
aS'X'
aS'X'
aS'X'
aS'X'
aS'X'
aS'X'
aS'X'
aS'X'
aS'X'
aS'X'
aS'X'
aS'X'
aS'3_0'
p80
aa(lp81
S'X'
aS'X'
aS'X'
aS'X'
aS'X'
aS'X'
aS'X'
aS'X'
aS'X'
aS'X'
aS'X'
aS'X'
aS'X'
aS'X'
aS'X'
aS'X'
aS'X'
aS'X'
aS'X'
aS'3_0'
p82
aa(lp83
S'X'
aS'X'
aS'X'
aS'X'
aS'X'
aS'X'
aS'X'
aS'X'
aS'X'
aS'X'
aS'X'
aS'X'
aS'X'
aS'X'
aS'X'
aS'X'
aS'X'
aS'X'
aS'X'
aS'3_0'
p84
aa(lp85
S'X'
aS'X'
aS'X'
aS'X'
aS'X'
aS'X'
aS'X'
aS'X'
aS'X'
aS'X'
aS'X'
aS'X'
aS'X'
aS'X'
aS'X'
aS'X'
aS'X'
aS'X'
aS'X'
aS'3_0'
p86
aa(lp87
S'X'
aS'X'
aS'X'
aS'X'
aS'X'
aS'X'
aS'X'
aS'X'
aS'X'
aS'X'
aS'X'
aS'X'
aS'X'
aS'X'
aS'X'
aS'X'
aS'X'
aS'X'
aS'3_0'
p88
aS'3_0'
p89
aa(lp90
S'X'
aS'X'
aS'X'
aS'X'
aS'X'
aS'X'
aS'X'
aS'X'
aS'X'
aS'X'
aS'X'
aS'X'
aS'X'
aS'X'
aS'X'
aS'X'
aS'3_0'
p91
aS'3_0'
p92
aS'3_0'
p93
aS'3_0'
p94
aa(lp95
S'X'
aS'X'
aS'X'
aS'X'
aS'X'
aS'X'
aS'X'
aS'X'
aS'X'
aS'X'
aS'X'
aS'X'
aS'X'
aS'X'
aS'X'
aS'3_0'
p96
aS'3_0'
p97
aS'3_0'
p98
aS'3_0'
p99
aS'1'
aa(lp100
S'X'
aS'X'
aS'X'
aS'X'
aS'X'
aS'X'
aS'X'
aS'X'
aS'X'
aS'X'
aS'X'
aS'X'
aS'X'
aS'X'
aS'3_0'
p101
aS'3_0'
p102
aS'3_0'
p103
aS'3_0'
p104
aS'3_0'
p105
aS'1'
aa(lp106
S'X'
aS'X'
aS'X'
aS'X'
aS'X'
aS'X'
aS'X'
aS'X'
aS'X'
aS'X'
aS'X'
aS'X'
aS'X'
aS'X'
aS'3_0'
p107
aS'3_0'
p108
aS'3_0'
p109
aS'3_0'
p110
aS'3_0'
p111
aS'1'
aa(lp112
S'X'
aS'X'
aS'X'
aS'X'
aS'X'
aS'X'
aS'X'
aS'X'
aS'X'
aS'X'
aS'X'
aS'X'
aS'X'
aS'X'
aS'X'
aS'3_0'
p113
aS'3_0'
p114
aS'3_0'
p115
aS'3_0'
p116
aS'1'
aa(lp117
S'X'
aS'X'
aS'X'
aS'X'
aS'X'
aS'X'
aS'X'
aS'X'
aS'X'
aS'X'
aS'X'
aS'X'
aS'X'
aS'X'
aS'X'
aS'3_0'
p118
aS'3_0'
p119
aS'3_0'
p120
aS'3_0'
p121
aS'3_0'
p122
aa(lp123
S'3_0'
p124
aS'3_0'
p125
aS'3_0'
p126
aS'3_0'
p127
aS'3_0'
p128
aS'3_0'
p129
aS'3_0'
p130
aS'3_0'
p131
aS'3_0'
p132
aS'3_0'
p133
aS'3_0'
p134
aS'3_0'
p135
aS'3_0'
p136
aS'3_0'
p137
aS'3_0'
p138
aS'3_0'
p139
aS'3_0'
p140
aS'3_0'
p141
aS'3_0'
p142
aS'3_0'
p143
aasI2
(lp144
(lp145
S'X'
aS'X'
aS'X'
aS'X'
aS'X'
aS'X'
aS'X'
aS'X'
aS'X'
aS'X'
aS'X'
aS'X'
aS'X'
aS'X'
aS'X'
aS'X'
aS'X'
aS'X'
aS'X'
aS'3_0'
p146
aa(lp147
S'X'
aS'X'
aS'X'
aS'X'
aS'X'
aS'X'
aS'X'
aS'X'
aS'X'
aS'X'
aS'X'
aS'X'
aS'X'
aS'X'
aS'X'
aS'X'
aS'X'
aS'X'
aS'X'
aS'3_0'
p148
aa(lp149
S'X'
aS'X'
aS'X'
aS'X'
aS'X'
aS'X'
aS'X'
aS'X'
aS'X'
aS'X'
aS'X'
aS'X'
aS'X'
aS'X'
aS'X'
aS'X'
aS'X'
aS'X'
aS'X'
aS'3_0'
p150
aa(lp151
S'X'
aS'X'
aS'X'
aS'X'
aS'X'
aS'X'
aS'X'
aS'X'
aS'X'
aS'X'
aS'X'
aS'X'
aS'X'
aS'X'
aS'X'
aS'X'
aS'X'
aS'X'
aS'X'
aS'3_0'
p152
aa(lp153
S'X'
aS'X'
aS'X'
aS'X'
aS'X'
aS'X'
aS'X'
aS'X'
aS'X'
aS'X'
aS'X'
aS'X'
aS'X'
aS'X'
aS'X'
aS'X'
aS'X'
aS'X'
aS'X'
aS'3_0'
p154
aa(lp155
S'X'
aS'X'
aS'X'
aS'X'
aS'X'
aS'X'
aS'X'
aS'X'
aS'X'
aS'X'
aS'X'
aS'X'
aS'X'
aS'X'
aS'X'
aS'X'
aS'X'
aS'X'
aS'X'
aS'3_0'
p156
aa(lp157
S'X'
aS'X'
aS'X'
aS'X'
aS'X'
aS'X'
aS'X'
aS'X'
aS'X'
aS'X'
aS'X'
aS'X'
aS'X'
aS'X'
aS'X'
aS'X'
aS'X'
aS'X'
aS'X'
aS'3_0'
p158
aa(lp159
S'X'
aS'X'
aS'X'
aS'X'
aS'X'
aS'X'
aS'X'
aS'X'
aS'X'
aS'X'
aS'X'
aS'X'
aS'X'
aS'X'
aS'X'
aS'X'
aS'X'
aS'X'
aS'X'
aS'3_0'
p160
aa(lp161
S'X'
aS'X'
aS'X'
aS'X'
aS'X'
aS'X'
aS'X'
aS'X'
aS'X'
aS'X'
aS'X'
aS'X'
aS'X'
aS'X'
aS'X'
aS'X'
aS'X'
aS'X'
aS'X'
aS'3_0'
p162
aa(lp163
S'X'
aS'X'
aS'X'
aS'X'
aS'X'
aS'X'
aS'X'
aS'X'
aS'X'
aS'X'
aS'X'
aS'X'
aS'X'
aS'X'
aS'X'
aS'X'
aS'X'
aS'X'
aS'3_0'
p164
aS'3_0'
p165
aa(lp166
S'X'
aS'X'
aS'X'
aS'X'
aS'X'
aS'X'
aS'X'
aS'X'
aS'X'
aS'X'
aS'X'
aS'X'
aS'X'
aS'X'
aS'3_0'
p167
aS'3_0'
p168
aS'3_0'
p169
aS'3_0'
p170
aS'3_0'
p171
aS'1'
aa(lp172
S'X'
aS'X'
aS'X'
aS'X'
aS'X'
aS'X'
aS'X'
aS'X'
aS'X'
aS'X'
aS'X'
aS'X'
aS'X'
aS'3_0'
p173
aS'3_0'
p174
aS'3_0'
p175
aS'3_0'
p176
aS'3_0'
p177
aS'3_0'
p178
aS'1'
aa(lp179
S'X'
aS'X'
aS'X'
aS'X'
aS'X'
aS'X'
aS'X'
aS'X'
aS'X'
aS'X'
aS'X'
aS'X'
aS'X'
aS'3_0'
p180
aS'3_0'
p181
aS'3_0'
p182
aS'3_0'
p183
aS'3_0'
p184
aS'1'
aS'1'
aa(lp185
S'X'
aS'X'
aS'X'
aS'X'
aS'X'
aS'X'
aS'X'
aS'X'
aS'X'
aS'X'
aS'X'
aS'X'
aS'3_0'
p186
aS'3_0'
p187
aS'3_0'
p188
aS'3_0'
p189
aS'1'
aS'1'
aS'1'
aS'1'
aa(lp190
S'X'
aS'X'
aS'X'
aS'X'
aS'X'
aS'X'
aS'X'
aS'X'
aS'X'
aS'X'
aS'X'
aS'X'
aS'3_0'
p191
aS'3_0'
p192
aS'3_0'
p193
aS'1'
aS'1'
aS'1'
aS'1'
aS'1'
aa(lp194
S'X'
aS'X'
aS'X'
aS'X'
aS'X'
aS'X'
aS'X'
aS'X'
aS'X'
aS'X'
aS'X'
aS'X'
aS'3_0'
p195
aS'3_0'
p196
aS'1'
aS'1'
aS'1'
aS'1'
aS'1'
aS'1'
aa(lp197
S'X'
aS'X'
aS'X'
aS'X'
aS'X'
aS'X'
aS'X'
aS'X'
aS'X'
aS'X'
aS'X'
aS'X'
aS'3_0'
p198
aS'3_0'
p199
aS'1'
aS'1'
aS'1'
aS'1'
aS'1'
aS'1'
aa(lp200
S'X'
aS'X'
aS'X'
aS'X'
aS'X'
aS'X'
aS'X'
aS'X'
aS'X'
aS'X'
aS'X'
aS'X'
aS'3_0'
p201
aS'3_0'
p202
aS'3_0'
p203
aS'1'
aS'1'
aS'1'
aS'1'
aS'1'
aa(lp204
S'X'
aS'X'
aS'X'
aS'X'
aS'X'
aS'X'
aS'X'
aS'X'
aS'X'
aS'X'
aS'X'
aS'X'
aS'3_0'
p205
aS'3_0'
p206
aS'3_0'
p207
aS'1'
aS'1'
aS'1'
aS'1'
aS'1'
aa(lp208
S'3_0'
p209
aS'3_0'
p210
aS'3_0'
p211
aS'3_0'
p212
aS'3_0'
p213
aS'3_0'
p214
aS'3_0'
p215
aS'3_0'
p216
aS'3_0'
p217
aS'3_0'
p218
aS'3_0'
p219
aS'3_0'
p220
aS'3_0'
p221
aS'3_0'
p222
aS'3_0'
p223
aS'3_0'
p224
aS'3_0'
p225
aS'1'
aS'1'
aS'1'
aasI3
(lp226
(lp227
S'X'
aS'X'
aS'X'
aS'X'
aS'X'
aS'X'
aS'X'
aS'X'
aS'X'
aS'X'
aS'X'
aS'X'
aS'X'
aS'X'
aS'X'
aS'X'
aS'X'
aS'X'
aS'X'
aS'3_0'
p228
aa(lp229
S'X'
aS'X'
aS'X'
aS'X'
aS'X'
aS'X'
aS'X'
aS'X'
aS'X'
aS'X'
aS'X'
aS'X'
aS'X'
aS'X'
aS'X'
aS'X'
aS'X'
aS'X'
aS'X'
aS'3_0'
p230
aa(lp231
S'X'
aS'X'
aS'X'
aS'X'
aS'X'
aS'X'
aS'X'
aS'X'
aS'X'
aS'X'
aS'X'
aS'X'
aS'X'
aS'X'
aS'X'
aS'X'
aS'X'
aS'X'
aS'X'
aS'3_0'
p232
aa(lp233
S'X'
aS'X'
aS'X'
aS'X'
aS'X'
aS'X'
aS'X'
aS'X'
aS'X'
aS'X'
aS'X'
aS'X'
aS'X'
aS'X'
aS'X'
aS'X'
aS'X'
aS'X'
aS'X'
aS'3_0'
p234
aa(lp235
S'X'
aS'X'
aS'X'
aS'X'
aS'X'
aS'X'
aS'X'
aS'X'
aS'X'
aS'X'
aS'X'
aS'X'
aS'X'
aS'X'
aS'X'
aS'X'
aS'X'
aS'X'
aS'X'
aS'3_0'
p236
aa(lp237
S'X'
aS'X'
aS'X'
aS'X'
aS'X'
aS'X'
aS'X'
aS'X'
aS'X'
aS'X'
aS'X'
aS'X'
aS'X'
aS'X'
aS'X'
aS'X'
aS'X'
aS'X'
aS'3_0'
p238
aS'3_0'
p239
aa(lp240
S'X'
aS'X'
aS'X'
aS'X'
aS'X'
aS'X'
aS'X'
aS'X'
aS'X'
aS'X'
aS'X'
aS'X'
aS'X'
aS'X'
aS'X'
aS'3_0'
p241
aS'3_0'
p242
aS'3_0'
p243
aS'3_0'
p244
aS'3_0'
p245
aa(lp246
S'X'
aS'X'
aS'X'
aS'X'
aS'X'
aS'X'
aS'X'
aS'X'
aS'X'
aS'X'
aS'X'
aS'X'
aS'3_0'
p247
aS'3_0'
p248
aS'3_0'
p249
aS'3_0'
p250
aS'3_0'
p251
aS'3_0'
p252
aS'3_0'
p253
aS'3_0'
p254
aa(lp255
S'X'
aS'X'
aS'X'
aS'X'
aS'X'
aS'X'
aS'X'
aS'X'
aS'X'
aS'X'
aS'X'
aS'3_0'
p256
aS'3_0'
p257
aS'3_0'
p258
aS'3_0'
p259
aS'3_0'
p260
aS'3_0'
p261
aS'3_0'
p262
aS'3_0'
p263
aS'1'
aa(lp264
S'X'
aS'X'
aS'X'
aS'X'
aS'X'
aS'X'
aS'X'
aS'X'
aS'X'
aS'X'
aS'3_0'
p265
aS'3_0'
p266
aS'3_0'
p267
aS'3_0'
p268
aS'3_0'
p269
aS'3_0'
p270
aS'3_0'
p271
aS'3_0'
p272
aS'1'
aS'1'
aa(lp273
S'X'
aS'X'
aS'X'
aS'X'
aS'X'
aS'X'
aS'X'
aS'X'
aS'X'
aS'X'
aS'3_0'
p274
aS'3_0'
p275
aS'3_0'
p276
aS'3_0'
p277
aS'1'
aS'1'
aS'1'
aS'1'
aS'1'
aS'1'
aa(lp278
S'X'
aS'X'
aS'X'
aS'X'
aS'X'
aS'X'
aS'X'
aS'X'
aS'X'
aS'3_0'
p279
aS'3_0'
p280
aS'3_0'
p281
aS'3_0'
p282
aS'1'
aS'1'
aS'1'
aS'1'
aS'1'
aS'1'
aS'1'
aa(lp283
S'X'
aS'X'
aS'X'
aS'X'
aS'X'
aS'X'
aS'X'
aS'X'
aS'X'
aS'3_0'
p284
aS'3_0'
p285
aS'3_0'
p286
aS'3_0'
p287
aS'1'
aS'1'
aS'1'
aS'1'
aS'1'
aS'1'
aS'1'
aa(lp288
S'X'
aS'X'
aS'X'
aS'X'
aS'X'
aS'X'
aS'X'
aS'X'
aS'X'
aS'3_0'
p289
aS'3_0'
p290
aS'3_0'
p291
aS'1'
aS'1'
aS'1'
aS'1'
aS'1'
aS'1'
aS'1'
aS'1'
aa(lp292
S'X'
aS'X'
aS'X'
aS'X'
aS'X'
aS'X'
aS'X'
aS'X'
aS'X'
aS'3_0'
p293
aS'3_0'
p294
aS'3_0'
p295
aS'1'
aS'1'
aS'1'
aS'1'
aS'1'
aS'1'
aS'1'
aS'1'
aa(lp296
S'X'
aS'X'
aS'X'
aS'X'
aS'X'
aS'X'
aS'X'
aS'X'
aS'X'
aS'3_0'
p297
aS'3_0'
p298
aS'3_0'
p299
aS'1'
aS'1'
aS'1'
aS'1'
aS'1'
aS'1'
aS'1'
aS'1'
aa(lp300
S'X'
aS'X'
aS'X'
aS'X'
aS'X'
aS'X'
aS'X'
aS'X'
aS'X'
aS'3_0'
p301
aS'3_0'
p302
aS'3_0'
p303
aS'1'
aS'1'
aS'1'
aS'1'
aS'1'
aS'1'
aS'1'
aS'1'
aa(lp304
S'X'
aS'X'
aS'X'
aS'X'
aS'X'
aS'X'
aS'X'
aS'X'
aS'X'
aS'3_0'
p305
aS'3_0'
p306
aS'3_0'
p307
aS'1'
aS'1'
aS'1'
aS'1'
aS'1'
aS'1'
aS'1'
aS'1'
aa(lp308
S'X'
aS'X'
aS'X'
aS'X'
aS'X'
aS'X'
aS'X'
aS'X'
aS'X'
aS'3_0'
p309
aS'3_0'
p310
aS'3_0'
p311
aS'1'
aS'1'
aS'1'
aS'1'
aS'1'
aS'1'
aS'1'
aS'1'
aa(lp312
S'3_0'
p313
aS'3_0'
p314
aS'3_0'
p315
aS'3_0'
p316
aS'3_0'
p317
aS'3_0'
p318
aS'3_0'
p319
aS'3_0'
p320
aS'3_0'
p321
aS'3_0'
p322
aS'3_0'
p323
aS'3_0'
p324
aS'1'
aS'1'
aS'1'
aS'1'
aS'1'
aS'1'
aS'1'
aS'1'
aasI4
(lp325
(lp326
S'X'
aS'X'
aS'X'
aS'X'
aS'X'
aS'X'
aS'X'
aS'X'
aS'X'
aS'X'
aS'X'
aS'X'
aS'X'
aS'X'
aS'X'
aS'X'
aS'X'
aS'X'
aS'X'
aS'3_0'
p327
aa(lp328
S'X'
aS'X'
aS'X'
aS'X'
aS'X'
aS'X'
aS'X'
aS'X'
aS'X'
aS'X'
aS'X'
aS'X'
aS'X'
aS'X'
aS'X'
aS'X'
aS'X'
aS'X'
aS'X'
aS'3_0'
p329
aa(lp330
S'X'
aS'X'
aS'X'
aS'X'
aS'X'
aS'X'
aS'X'
aS'X'
aS'X'
aS'X'
aS'X'
aS'X'
aS'X'
aS'X'
aS'X'
aS'X'
aS'X'
aS'X'
aS'X'
aS'3_0'
p331
aa(lp332
S'X'
aS'X'
aS'X'
aS'X'
aS'X'
aS'X'
aS'X'
aS'X'
aS'X'
aS'X'
aS'X'
aS'X'
aS'X'
aS'X'
aS'X'
aS'X'
aS'X'
aS'X'
aS'X'
aS'3_0'
p333
aa(lp334
S'X'
aS'X'
aS'X'
aS'X'
aS'X'
aS'X'
aS'X'
aS'X'
aS'X'
aS'X'
aS'X'
aS'X'
aS'X'
aS'X'
aS'X'
aS'X'
aS'X'
aS'X'
aS'3_0'
p335
aS'0_0'
p336
aa(lp337
S'X'
aS'X'
aS'X'
aS'X'
aS'X'
aS'X'
aS'X'
aS'X'
aS'X'
aS'X'
aS'X'
aS'X'
aS'X'
aS'X'
aS'X'
aS'3_0'
p338
aS'0_0'
p339
aS'0_0'
p340
aS'2'
aS'2'
aa(lp341
S'X'
aS'X'
aS'X'
aS'X'
aS'X'
aS'X'
aS'X'
aS'X'
aS'X'
aS'X'
aS'X'
aS'X'
aS'0_0'
p342
aS'0_0'
p343
aS'0_0'
p344
aS'2'
aS'2'
aS'2'
aS'2'
aS'1'
aa(lp345
S'X'
aS'X'
aS'X'
aS'X'
aS'X'
aS'X'
aS'X'
aS'X'
aS'X'
aS'X'
aS'X'
aS'0_0'
p346
aS'2'
aS'2'
aS'2'
aS'2'
aS'1'
aS'1'
aS'1'
aS'1'
aa(lp347
S'X'
aS'X'
aS'X'
aS'X'
aS'X'
aS'X'
aS'X'
aS'X'
aS'X'
aS'0_0'
p348
aS'0_0'
p349
aS'2'
aS'2'
aS'1'
aS'1'
aS'1'
aS'1'
aS'1'
aS'1'
aS'1'
aa(lp350
S'X'
aS'X'
aS'X'
aS'X'
aS'X'
aS'X'
aS'X'
aS'X'
aS'0_0'
p351
aS'0_0'
p352
aS'2'
aS'2'
aS'1'
aS'1'
aS'1'
aS'1'
aS'1'
aS'1'
aS'1'
aS'1'
aa(lp353
S'X'
aS'X'
aS'X'
aS'X'
aS'X'
aS'X'
aS'X'
aS'X'
aS'0_0'
p354
aS'0_0'
p355
aS'2'
aS'1'
aS'1'
aS'1'
aS'1'
aS'1'
aS'1'
aS'1'
aS'1'
aS'1'
aa(lp356
S'X'
aS'X'
aS'X'
aS'X'
aS'X'
aS'X'
aS'X'
aS'0_0'
p357
aS'0_0'
p358
aS'2'
aS'2'
aS'1'
aS'1'
aS'1'
aS'1'
aS'1'
aS'1'
aS'1'
aS'1'
aS'1'
aa(lp359
S'X'
aS'X'
aS'X'
aS'X'
aS'X'
aS'X'
aS'X'
aS'0_0'
p360
aS'0_0'
p361
aS'2'
aS'1'
aS'1'
aS'1'
aS'1'
aS'1'
aS'1'
aS'1'
aS'1'
aS'1'
aS'1'
aa(lp362
S'X'
aS'X'
aS'X'
aS'X'
aS'X'
aS'X'
aS'X'
aS'0_0'
p363
aS'0_0'
p364
aS'2'
aS'1'
aS'1'
aS'1'
aS'1'
aS'1'
aS'1'
aS'1'
aS'1'
aS'1'
aS'1'
aa(lp365
S'X'
aS'X'
aS'X'
aS'X'
aS'X'
aS'X'
aS'0_0'
p366
aS'0_0'
p367
aS'0_0'
p368
aS'2'
aS'1'
aS'1'
aS'1'
aS'1'
aS'1'
aS'1'
aS'1'
aS'1'
aS'1'
aS'1'
aa(lp369
S'X'
aS'X'
aS'X'
aS'X'
aS'X'
aS'X'
aS'0_0'
p370
aS'0_0'
p371
aS'0_0'
p372
aS'2'
aS'1'
aS'1'
aS'1'
aS'1'
aS'1'
aS'1'
aS'1'
aS'1'
aS'1'
aS'1'
aa(lp373
S'X'
aS'X'
aS'X'
aS'X'
aS'X'
aS'X'
aS'0_0'
p374
aS'0_0'
p375
aS'0_0'
p376
aS'2'
aS'1'
aS'1'
aS'1'
aS'1'
aS'1'
aS'1'
aS'1'
aS'1'
aS'1'
aS'1'
aa(lp377
S'X'
aS'X'
aS'X'
aS'X'
aS'X'
aS'X'
aS'0_0'
p378
aS'0_0'
p379
aS'0_0'
p380
aS'2'
aS'1'
aS'1'
aS'1'
aS'1'
aS'1'
aS'1'
aS'1'
aS'1'
aS'1'
aS'1'
aa(lp381
S'X'
aS'X'
aS'X'
aS'X'
aS'X'
aS'X'
aS'0_0'
p382
aS'0_0'
p383
aS'0_0'
p384
aS'2'
aS'1'
aS'1'
aS'1'
aS'1'
aS'1'
aS'1'
aS'1'
aS'1'
aS'1'
aS'1'
aa(lp385
S'3_0'
p386
aS'3_0'
p387
aS'3_0'
p388
aS'3_0'
p389
aS'3_0'
p390
aS'3_0'
p391
aS'0_0'
p392
aS'0_0'
p393
aS'0_0'
p394
aS'2'
aS'1'
aS'1'
aS'1'
aS'1'
aS'1'
aS'1'
aS'1'
aS'1'
aS'1'
aS'1'
aasI5
(lp395
(lp396
S'X'
aS'X'
aS'X'
aS'X'
aS'X'
aS'X'
aS'X'
aS'X'
aS'X'
aS'X'
aS'X'
aS'X'
aS'X'
aS'X'
aS'X'
aS'X'
aS'X'
aS'X'
aS'X'
aS'3_2'
p397
aa(lp398
S'X'
aS'X'
aS'X'
aS'X'
aS'X'
aS'X'
aS'X'
aS'X'
aS'X'
aS'X'
aS'X'
aS'X'
aS'X'
aS'X'
aS'X'
aS'X'
aS'X'
aS'X'
aS'X'
aS'3_0'
p399
aa(lp400
S'X'
aS'X'
aS'X'
aS'X'
aS'X'
aS'X'
aS'X'
aS'X'
aS'X'
aS'X'
aS'X'
aS'X'
aS'X'
aS'X'
aS'X'
aS'X'
aS'X'
aS'X'
aS'X'
aS'0_0'
p401
aa(lp402
S'X'
aS'X'
aS'X'
aS'X'
aS'X'
aS'X'
aS'X'
aS'X'
aS'X'
aS'X'
aS'X'
aS'X'
aS'X'
aS'X'
aS'X'
aS'X'
aS'X'
aS'0_0'
p403
aS'0_0'
p404
aS'0_0'
p405
aa(lp406
S'X'
aS'X'
aS'X'
aS'X'
aS'X'
aS'X'
aS'X'
aS'X'
aS'X'
aS'X'
aS'X'
aS'X'
aS'0_0'
p407
aS'0_0'
p408
aS'0_0'
p409
aS'0_0'
p410
aS'0_0'
p411
aS'0_0'
p412
aS'0_0'
p413
aS'@'
aa(lp414
S'X'
aS'X'
aS'X'
aS'X'
aS'X'
aS'X'
aS'X'
aS'X'
aS'X'
aS'X'
aS'0_0'
p415
aS'0_0'
p416
aS'0_0'
p417
aS'0_0'
p418
aS'0_0'
p419
aS'0_0'
p420
aS'@'
aS'@'
aS'@'
aS'@'
aa(lp421
S'X'
aS'X'
aS'X'
aS'X'
aS'X'
aS'X'
aS'X'
aS'0_0'
p422
aS'0_0'
p423
aS'0_0'
p424
aS'0_0'
p425
aS'0_0'
p426
aS'@'
aS'@'
aS'@'
aS'@'
aS'@'
aS'@'
aS'@'
aS'@'
aa(lp427
S'X'
aS'X'
aS'X'
aS'X'
aS'X'
aS'X'
aS'0_0'
p428
aS'0_0'
p429
aS'0_0'
p430
aS'0_0'
p431
aS'0_0'
p432
aS'@'
aS'@'
aS'@'
aS'@'
aS'@'
aS'@'
aS'@'
aS'@'
aS'@'
aa(lp433
S'X'
aS'X'
aS'X'
aS'X'
aS'X'
aS'X'
aS'0_0'
p434
aS'0_0'
p435
aS'0_0'
p436
aS'@'
aS'@'
aS'@'
aS'@'
aS'@'
aS'@'
aS'@'
aS'@'
aS'@'
aS'@'
aS'@'
aa(lp437
S'X'
aS'X'
aS'X'
aS'X'
aS'X'
aS'0_0'
p438
aS'0_0'
p439
aS'0_0'
p440
aS'@'
aS'@'
aS'@'
aS'@'
aS'@'
aS'@'
aS'@'
aS'@'
aS'@'
aS'@'
aS'@'
aS'@'
aa(lp441
S'X'
aS'X'
aS'X'
aS'X'
aS'X'
aS'0_0'
p442
aS'0_0'
p443
aS'0_0'
p444
aS'@'
aS'@'
aS'@'
aS'@'
aS'@'
aS'@'
aS'@'
aS'@'
aS'@'
aS'@'
aS'@'
aS'@'
aa(lp445
S'X'
aS'X'
aS'X'
aS'X'
aS'0_0'
p446
aS'0_0'
p447
aS'0_0'
p448
aS'@'
aS'@'
aS'@'
aS'@'
aS'@'
aS'@'
aS'@'
aS'@'
aS'@'
aS'@'
aS'@'
aS'@'
aS'@'
aa(lp449
S'X'
aS'X'
aS'X'
aS'X'
aS'0_0'
p450
aS'0_0'
p451
aS'0_0'
p452
aS'@'
aS'@'
aS'@'
aS'@'
aS'@'
aS'@'
aS'@'
aS'@'
aS'@'
aS'@'
aS'@'
aS'@'
aS'@'
aa(lp453
S'X'
aS'X'
aS'X'
aS'0_0'
p454
aS'0_0'
p455
aS'0_0'
p456
aS'0_0'
p457
aS'@'
aS'@'
aS'@'
aS'@'
aS'@'
aS'@'
aS'@'
aS'@'
aS'@'
aS'@'
aS'@'
aS'@'
aS'@'
aa(lp458
S'X'
aS'X'
aS'0_0'
p459
aS'0_0'
p460
aS'0_0'
p461
aS'0_0'
p462
aS'@'
aS'@'
aS'@'
aS'@'
aS'@'
aS'@'
aS'@'
aS'@'
aS'@'
aS'@'
aS'@'
aS'@'
aS'@'
aS'@'
aa(lp463
S'X'
aS'0_0'
p464
aS'0_0'
p465
aS'0_0'
p466
aS'0_0'
p467
aS'0_0'
p468
aS'@'
aS'@'
aS'@'
aS'@'
aS'@'
aS'@'
aS'@'
aS'@'
aS'@'
aS'@'
aS'@'
aS'@'
aS'@'
aS'@'
aa(lp469
S'X'
aS'0_0'
p470
aS'0_0'
p471
aS'0_0'
p472
aS'0_0'
p473
aS'0_0'
p474
aS'@'
aS'@'
aS'@'
aS'@'
aS'@'
aS'@'
aS'@'
aS'@'
aS'@'
aS'@'
aS'@'
aS'@'
aS'@'
aS'@'
aa(lp475
S'0_1'
p476
aS'0_0'
p477
aS'0_0'
p478
aS'0_0'
p479
aS'0_0'
p480
aS'0_0'
p481
aS'@'
aS'@'
aS'@'
aS'@'
aS'@'
aS'@'
aS'@'
aS'@'
aS'@'
aS'@'
aS'@'
aS'@'
aS'@'
aS'@'
aa(lp482
S'0_1'
p483
aS'0_0'
p484
aS'0_0'
p485
aS'0_0'
p486
aS'0_0'
p487
aS'0_0'
p488
aS'@'
aS'@'
aS'@'
aS'@'
aS'@'
aS'@'
aS'@'
aS'@'
aS'@'
aS'@'
aS'@'
aS'@'
aS'@'
aS'@'
aa(lp489
S'0_1'
p490
aS'0_0'
p491
aS'0_0'
p492
aS'0_0'
p493
aS'0_0'
p494
aS'0_0'
p495
aS'@'
aS'@'
aS'@'
aS'@'
aS'@'
aS'@'
aS'@'
aS'@'
aS'@'
aS'@'
aS'@'
aS'@'
aS'@'
aS'@'
aasI6
(lp496
(lp497
S'X'
aS'X'
aS'X'
aS'X'
aS'X'
aS'X'
aS'X'
aS'X'
aS'X'
aS'X'
aS'X'
aS'X'
aS'X'
aS'X'
aS'X'
aS'X'
aS'X'
aS'0_2'
p498
aS'0_2'
p499
aS'0_2'
p500
aa(lp501
S'X'
aS'X'
aS'X'
aS'X'
aS'X'
aS'X'
aS'X'
aS'X'
aS'X'
aS'X'
aS'X'
aS'X'
aS'X'
aS'X'
aS'X'
aS'0_0'
p502
aS'0_0'
p503
aS'0_0'
p504
aS'0_0'
p505
aS'0_0'
p506
aa(lp507
S'X'
aS'X'
aS'X'
aS'X'
aS'X'
aS'X'
aS'X'
aS'X'
aS'X'
aS'X'
aS'X'
aS'X'
aS'0_0'
p508
aS'0_0'
p509
aS'0_0'
p510
aS'0_0'
p511
aS'0_0'
p512
aS'0_0'
p513
aS'0_0'
p514
aS'@'
aa(lp515
S'X'
aS'X'
aS'X'
aS'X'
aS'X'
aS'X'
aS'X'
aS'X'
aS'X'
aS'0_0'
p516
aS'0_0'
p517
aS'0_0'
p518
aS'0_0'
p519
aS'0_0'
p520
aS'0_0'
p521
aS'0_0'
p522
aS'0_0'
p523
aS'@'
aS'@'
aS'@'
aa(lp524
S'X'
aS'X'
aS'X'
aS'X'
aS'X'
aS'0_0'
p525
aS'0_0'
p526
aS'0_0'
p527
aS'0_0'
p528
aS'0_0'
p529
aS'0_0'
p530
aS'0_0'
p531
aS'@'
aS'@'
aS'@'
aS'@'
aS'@'
aS'@'
aS'@'
aS'@'
aa(lp532
S'X'
aS'X'
aS'X'
aS'X'
aS'0_0'
p533
aS'0_0'
p534
aS'0_0'
p535
aS'0_0'
p536
aS'0_0'
p537
aS'0_0'
p538
aS'@'
aS'@'
aS'@'
aS'@'
aS'@'
aS'@'
aS'@'
aS'@'
aS'@'
aS'@'
aa(lp539
S'X'
aS'X'
aS'X'
aS'0_0'
p540
aS'0_0'
p541
aS'0_0'
p542
aS'0_0'
p543
aS'@'
aS'@'
aS'@'
aS'@'
aS'@'
aS'@'
aS'@'
aS'@'
aS'@'
aS'@'
aS'@'
aS'@'
aS'@'
aa(lp544
S'X'
aS'X'
aS'0_0'
p545
aS'0_0'
p546
aS'0_0'
p547
aS'0_0'
p548
aS'@'
aS'@'
aS'@'
aS'@'
aS'@'
aS'@'
aS'@'
aS'@'
aS'@'
aS'@'
aS'@'
aS'@'
aS'@'
aS'@'
aa(lp549
S'0_1'
p550
aS'0_0'
p551
aS'0_0'
p552
aS'0_0'
p553
aS'0_0'
p554
aS'0_0'
p555
aS'@'
aS'@'
aS'@'
aS'@'
aS'@'
aS'@'
aS'@'
aS'@'
aS'@'
aS'@'
aS'@'
aS'@'
aS'@'
aS'@'
aa(lp556
S'0_1'
p557
aS'0_0'
p558
aS'0_0'
p559
aS'0_0'
p560
aS'0_0'
p561
aS'@'
aS'@'
aS'@'
aS'@'
aS'@'
aS'@'
aS'@'
aS'@'
aS'@'
aS'@'
aS'@'
aS'@'
aS'@'
aS'@'
aS'@'
aa(lp562
S'0_1'
p563
aS'0_0'
p564
aS'0_0'
p565
aS'0_0'
p566
aS'0_0'
p567
aS'@'
aS'@'
aS'@'
aS'@'
aS'@'
aS'@'
aS'@'
aS'@'
aS'@'
aS'@'
aS'@'
aS'@'
aS'@'
aS'@'
aS'@'
aa(lp568
S'0_1'
p569
aS'0_0'
p570
aS'0_0'
p571
aS'0_0'
p572
aS'@'
aS'@'
aS'@'
aS'@'
aS'@'
aS'@'
aS'@'
aS'@'
aS'@'
aS'@'
aS'@'
aS'@'
aS'@'
aS'@'
aS'@'
aS'@'
aa(lp573
S'0_1'
p574
aS'0_0'
p575
aS'0_0'
p576
aS'0_0'
p577
aS'@'
aS'@'
aS'@'
aS'@'
aS'@'
aS'@'
aS'@'
aS'@'
aS'@'
aS'@'
aS'@'
aS'@'
aS'@'
aS'@'
aS'@'
aS'@'
aa(lp578
S'0_1'
p579
aS'0_0'
p580
aS'0_0'
p581
aS'@'
aS'@'
aS'@'
aS'@'
aS'@'
aS'@'
aS'@'
aS'@'
aS'@'
aS'@'
aS'@'
aS'@'
aS'@'
aS'@'
aS'@'
aS'@'
aS'@'
aa(lp582
S'0_1'
p583
aS'0_0'
p584
aS'@'
aS'@'
aS'@'
aS'@'
aS'@'
aS'@'
aS'@'
aS'@'
aS'@'
aS'@'
aS'@'
aS'@'
aS'@'
aS'@'
aS'@'
aS'@'
aS'@'
aS'@'
aa(lp585
S'0_1'
p586
aS'@'
aS'@'
aS'@'
aS'@'
aS'@'
aS'@'
aS'@'
aS'@'
aS'@'
aS'@'
aS'@'
aS'@'
aS'@'
aS'@'
aS'@'
aS'@'
aS'@'
aS'@'
aS'@'
aa(lp587
S'0_1'
p588
aS'@'
aS'@'
aS'@'
aS'@'
aS'@'
aS'@'
aS'@'
aS'@'
aS'@'
aS'@'
aS'@'
aS'@'
aS'@'
aS'@'
aS'@'
aS'@'
aS'@'
aS'@'
aS'@'
aa(lp589
S'@'
aS'@'
aS'@'
aS'@'
aS'@'
aS'@'
aS'@'
aS'@'
aS'@'
aS'@'
aS'@'
aS'@'
aS'@'
aS'@'
aS'@'
aS'@'
aS'@'
aS'@'
aS'@'
aS'@'
aa(lp590
S'@'
aS'@'
aS'@'
aS'@'
aS'@'
aS'@'
aS'@'
aS'@'
aS'@'
aS'@'
aS'@'
aS'@'
aS'@'
aS'@'
aS'@'
aS'@'
aS'@'
aS'@'
aS'@'
aS'@'
aa(lp591
S'@'
aS'@'
aS'@'
aS'@'
aS'@'
aS'@'
aS'@'
aS'@'
aS'@'
aS'@'
aS'@'
aS'@'
aS'@'
aS'@'
aS'@'
aS'@'
aS'@'
aS'@'
aS'@'
aS'@'
aasI7
(lp592
(lp593
S'0_3'
p594
aS'0_2'
p595
aS'0_2'
p596
aS'0_2'
p597
aS'X'
aS'0_2'
p598
aS'0_2'
p599
aS'0_2'
p600
aS'0_2'
p601
aS'0_2'
p602
aS'0_2'
p603
aS'0_2'
p604
aS'0_2'
p605
aS'0_2'
p606
aS'0_2'
p607
aS'0_2'
p608
aS'0_2'
p609
aS'@'
aS'@'
aS'@'
aa(lp610
S'0_1'
p611
aS'0_0'
p612
aS'0_0'
p613
aS'0_0'
p614
aS'0_0'
p615
aS'0_0'
p616
aS'0_0'
p617
aS'0_0'
p618
aS'0_0'
p619
aS'0_0'
p620
aS'0_0'
p621
aS'0_0'
p622
aS'0_0'
p623
aS'0_0'
p624
aS'0_0'
p625
aS'@'
aS'@'
aS'@'
aS'@'
aS'@'
aa(lp626
S'0_1'
p627
aS'0_0'
p628
aS'0_0'
p629
aS'0_0'
p630
aS'0_0'
p631
aS'0_0'
p632
aS'0_0'
p633
aS'0_0'
p634
aS'0_0'
p635
aS'0_0'
p636
aS'0_0'
p637
aS'0_0'
p638
aS'@'
aS'@'
aS'@'
aS'@'
aS'@'
aS'@'
aS'@'
aS'@'
aa(lp639
S'0_1'
p640
aS'0_0'
p641
aS'0_0'
p642
aS'0_0'
p643
aS'0_0'
p644
aS'0_0'
p645
aS'0_0'
p646
aS'0_0'
p647
aS'0_0'
p648
aS'@'
aS'@'
aS'@'
aS'@'
aS'@'
aS'@'
aS'@'
aS'@'
aS'@'
aS'@'
aS'@'
aa(lp649
S'0_1'
p650
aS'0_0'
p651
aS'0_0'
p652
aS'0_0'
p653
aS'0_0'
p654
aS'@'
aS'@'
aS'@'
aS'@'
aS'@'
aS'@'
aS'@'
aS'@'
aS'@'
aS'@'
aS'@'
aS'@'
aS'@'
aS'@'
aS'@'
aa(lp655
S'0_1'
p656
aS'0_0'
p657
aS'0_0'
p658
aS'0_0'
p659
aS'@'
aS'@'
aS'@'
aS'@'
aS'@'
aS'@'
aS'@'
aS'@'
aS'@'
aS'@'
aS'@'
aS'@'
aS'@'
aS'@'
aS'@'
aS'@'
aa(lp660
S'0_1'
p661
aS'0_0'
p662
aS'0_0'
p663
aS'@'
aS'@'
aS'@'
aS'@'
aS'@'
aS'@'
aS'@'
aS'@'
aS'@'
aS'@'
aS'@'
aS'@'
aS'@'
aS'@'
aS'@'
aS'@'
aS'@'
aa(lp664
S'0_1'
p665
aS'0_0'
p666
aS'@'
aS'@'
aS'@'
aS'@'
aS'@'
aS'@'
aS'@'
aS'@'
aS'@'
aS'@'
aS'@'
aS'@'
aS'@'
aS'@'
aS'@'
aS'@'
aS'@'
aS'@'
aa(lp667
S'@'
aS'@'
aS'@'
aS'@'
aS'@'
aS'@'
aS'@'
aS'@'
aS'@'
aS'@'
aS'@'
aS'@'
aS'@'
aS'@'
aS'@'
aS'@'
aS'@'
aS'@'
aS'@'
aS'@'
aa(lp668
S'@'
aS'@'
aS'@'
aS'@'
aS'@'
aS'@'
aS'@'
aS'@'
aS'@'
aS'@'
aS'@'
aS'@'
aS'@'
aS'@'
aS'@'
aS'@'
aS'@'
aS'@'
aS'@'
aS'@'
aa(lp669
S'@'
aS'@'
aS'@'
aS'@'
aS'@'
aS'@'
aS'@'
aS'@'
aS'@'
aS'@'
aS'@'
aS'@'
aS'@'
aS'@'
aS'@'
aS'@'
aS'@'
aS'@'
aS'@'
aS'@'
aa(lp670
S'@'
aS'@'
aS'@'
aS'@'
aS'@'
aS'@'
aS'@'
aS'@'
aS'@'
aS'@'
aS'@'
aS'@'
aS'@'
aS'@'
aS'@'
aS'@'
aS'@'
aS'@'
aS'@'
aS'@'
aa(lp671
S'@'
aS'@'
aS'@'
aS'@'
aS'@'
aS'@'
aS'@'
aS'@'
aS'@'
aS'@'
aS'@'
aS'@'
aS'@'
aS'@'
aS'@'
aS'@'
aS'@'
aS'@'
aS'@'
aS'@'
aa(lp672
S'@'
aS'@'
aS'@'
aS'@'
aS'@'
aS'@'
aS'@'
aS'@'
aS'@'
aS'@'
aS'@'
aS'@'
aS'@'
aS'@'
aS'@'
aS'@'
aS'@'
aS'@'
aS'@'
aS'@'
aa(lp673
S'@'
aS'@'
aS'@'
aS'@'
aS'@'
aS'@'
aS'@'
aS'@'
aS'@'
aS'@'
aS'@'
aS'@'
aS'@'
aS'@'
aS'@'
aS'@'
aS'@'
aS'@'
aS'@'
aS'@'
aa(lp674
S'@'
aS'@'
aS'@'
aS'@'
aS'@'
aS'@'
aS'@'
aS'@'
aS'@'
aS'@'
aS'@'
aS'@'
aS'@'
aS'@'
aS'@'
aS'@'
aS'@'
aS'@'
aS'@'
aS'@'
aa(lp675
S'@'
aS'@'
aS'@'
aS'@'
aS'@'
aS'@'
aS'@'
aS'@'
aS'@'
aS'@'
aS'@'
aS'@'
aS'@'
aS'@'
aS'@'
aS'@'
aS'@'
aS'@'
aS'@'
aS'@'
aa(lp676
S'@'
aS'@'
aS'@'
aS'@'
aS'@'
aS'@'
aS'@'
aS'@'
aS'@'
aS'@'
aS'@'
aS'@'
aS'@'
aS'@'
aS'@'
aS'@'
aS'@'
aS'@'
aS'@'
aS'@'
aa(lp677
S'@'
aS'@'
aS'@'
aS'@'
aS'@'
aS'@'
aS'@'
aS'@'
aS'@'
aS'@'
aS'@'
aS'@'
aS'@'
aS'@'
aS'@'
aS'@'
aS'@'
aS'@'
aS'@'
aS'@'
aa(lp678
S'@'
aS'@'
aS'@'
aS'@'
aS'@'
aS'@'
aS'@'
aS'@'
aS'@'
aS'@'
aS'@'
aS'@'
aS'@'
aS'@'
aS'@'
aS'@'
aS'@'
aS'@'
aS'@'
aS'@'
aasI8
(lp679
(lp680
S'@'
aS'@'
aS'@'
aS'@'
aS'0_3'
p681
aS'@'
aS'@'
aS'@'
aS'@'
aS'@'
aS'@'
aS'@'
aS'@'
aS'@'
aS'@'
aS'@'
aS'@'
aS'@'
aS'@'
aS'@'
aa(lp682
S'@'
aS'@'
aS'@'
aS'@'
aS'@'
aS'@'
aS'@'
aS'@'
aS'@'
aS'@'
aS'@'
aS'@'
aS'@'
aS'@'
aS'@'
aS'@'
aS'@'
aS'@'
aS'@'
aS'@'
aa(lp683
S'@'
aS'@'
aS'@'
aS'@'
aS'@'
aS'@'
aS'@'
aS'@'
aS'@'
aS'@'
aS'@'
aS'@'
aS'@'
aS'@'
aS'@'
aS'@'
aS'@'
aS'@'
aS'@'
aS'@'
aa(lp684
S'@'
aS'@'
aS'@'
aS'@'
aS'@'
aS'@'
aS'@'
aS'@'
aS'@'
aS'@'
aS'@'
aS'@'
aS'@'
aS'@'
aS'@'
aS'@'
aS'@'
aS'@'
aS'@'
aS'@'
aa(lp685
S'@'
aS'@'
aS'@'
aS'@'
aS'@'
aS'@'
aS'@'
aS'@'
aS'@'
aS'@'
aS'@'
aS'@'
aS'@'
aS'@'
aS'@'
aS'@'
aS'@'
aS'@'
aS'@'
aS'@'
aa(lp686
S'@'
aS'@'
aS'@'
aS'@'
aS'@'
aS'@'
aS'@'
aS'@'
aS'@'
aS'@'
aS'@'
aS'@'
aS'@'
aS'@'
aS'@'
aS'@'
aS'@'
aS'@'
aS'@'
aS'@'
aa(lp687
S'@'
aS'@'
aS'@'
aS'@'
aS'@'
aS'@'
aS'@'
aS'@'
aS'@'
aS'@'
aS'@'
aS'@'
aS'@'
aS'@'
aS'@'
aS'@'
aS'@'
aS'@'
aS'@'
aS'@'
aa(lp688
S'@'
aS'@'
aS'@'
aS'@'
aS'@'
aS'@'
aS'@'
aS'@'
aS'@'
aS'@'
aS'@'
aS'@'
aS'@'
aS'@'
aS'@'
aS'@'
aS'@'
aS'@'
aS'@'
aS'@'
aa(lp689
S'@'
aS'@'
aS'@'
aS'@'
aS'@'
aS'@'
aS'@'
aS'@'
aS'@'
aS'@'
aS'@'
aS'@'
aS'@'
aS'@'
aS'@'
aS'@'
aS'@'
aS'@'
aS'@'
aS'@'
aa(lp690
S'@'
aS'@'
aS'@'
aS'@'
aS'@'
aS'@'
aS'@'
aS'@'
aS'@'
aS'@'
aS'@'
aS'@'
aS'@'
aS'@'
aS'@'
aS'@'
aS'@'
aS'@'
aS'@'
aS'@'
aa(lp691
S'@'
aS'@'
aS'@'
aS'@'
aS'@'
aS'@'
aS'@'
aS'@'
aS'@'
aS'@'
aS'@'
aS'@'
aS'@'
aS'@'
aS'@'
aS'@'
aS'@'
aS'@'
aS'@'
aS'@'
aa(lp692
S'@'
aS'@'
aS'@'
aS'@'
aS'@'
aS'@'
aS'@'
aS'@'
aS'@'
aS'@'
aS'@'
aS'@'
aS'@'
aS'@'
aS'@'
aS'@'
aS'@'
aS'@'
aS'@'
aS'@'
aa(lp693
S'@'
aS'@'
aS'@'
aS'@'
aS'@'
aS'@'
aS'@'
aS'@'
aS'@'
aS'@'
aS'@'
aS'@'
aS'@'
aS'@'
aS'@'
aS'@'
aS'@'
aS'@'
aS'@'
aS'@'
aa(lp694
S'@'
aS'@'
aS'@'
aS'@'
aS'@'
aS'@'
aS'@'
aS'@'
aS'@'
aS'@'
aS'@'
aS'@'
aS'@'
aS'@'
aS'@'
aS'@'
aS'@'
aS'@'
aS'@'
aS'@'
aa(lp695
S'@'
aS'@'
aS'@'
aS'@'
aS'@'
aS'@'
aS'@'
aS'@'
aS'@'
aS'@'
aS'@'
aS'@'
aS'@'
aS'@'
aS'@'
aS'@'
aS'@'
aS'@'
aS'@'
aS'@'
aa(lp696
S'@'
aS'@'
aS'@'
aS'@'
aS'@'
aS'@'
aS'@'
aS'@'
aS'@'
aS'@'
aS'@'
aS'@'
aS'@'
aS'@'
aS'@'
aS'@'
aS'@'
aS'@'
aS'@'
aS'@'
aa(lp697
S'@'
aS'@'
aS'@'
aS'@'
aS'@'
aS'@'
aS'@'
aS'@'
aS'@'
aS'@'
aS'@'
aS'@'
aS'@'
aS'@'
aS'@'
aS'@'
aS'@'
aS'@'
aS'@'
aS'@'
aa(lp698
S'@'
aS'@'
aS'@'
aS'@'
aS'@'
aS'@'
aS'@'
aS'@'
aS'@'
aS'@'
aS'@'
aS'@'
aS'@'
aS'@'
aS'@'
aS'@'
aS'@'
aS'@'
aS'@'
aS'@'
aa(lp699
S'@'
aS'@'
aS'@'
aS'@'
aS'@'
aS'@'
aS'@'
aS'@'
aS'@'
aS'@'
aS'@'
aS'@'
aS'@'
aS'@'
aS'@'
aS'@'
aS'@'
aS'@'
aS'@'
aS'@'
aa(lp700
S'@'
aS'@'
aS'@'
aS'@'
aS'@'
aS'@'
aS'@'
aS'@'
aS'@'
aS'@'
aS'@'
aS'@'
aS'@'
aS'@'
aS'@'
aS'@'
aS'@'
aS'@'
aS'@'
aS'@'
aasI9
(lp701
(lp702
S'@'
aS'@'
aS'@'
aS'@'
aS'@'
aS'@'
aS'@'
aS'@'
aS'@'
aS'@'
aS'@'
aS'@'
aS'@'
aS'@'
aS'@'
aS'@'
aS'@'
aS'@'
aS'@'
aS'@'
aa(lp703
S'@'
aS'@'
aS'@'
aS'@'
aS'@'
aS'@'
aS'@'
aS'@'
aS'@'
aS'@'
aS'@'
aS'@'
aS'@'
aS'@'
aS'@'
aS'@'
aS'@'
aS'@'
aS'@'
aS'@'
aa(lp704
S'@'
aS'@'
aS'@'
aS'@'
aS'@'
aS'@'
aS'@'
aS'@'
aS'@'
aS'@'
aS'@'
aS'@'
aS'@'
aS'@'
aS'@'
aS'@'
aS'@'
aS'@'
aS'@'
aS'@'
aa(lp705
S'@'
aS'@'
aS'@'
aS'@'
aS'@'
aS'@'
aS'@'
aS'@'
aS'@'
aS'@'
aS'@'
aS'@'
aS'@'
aS'@'
aS'@'
aS'@'
aS'@'
aS'@'
aS'@'
aS'@'
aa(lp706
S'@'
aS'@'
aS'@'
aS'@'
aS'@'
aS'@'
aS'@'
aS'@'
aS'@'
aS'@'
aS'@'
aS'@'
aS'@'
aS'@'
aS'@'
aS'@'
aS'@'
aS'@'
aS'@'
aS'@'
aa(lp707
S'@'
aS'@'
aS'@'
aS'@'
aS'@'
aS'@'
aS'@'
aS'@'
aS'@'
aS'@'
aS'@'
aS'@'
aS'@'
aS'@'
aS'@'
aS'@'
aS'@'
aS'@'
aS'@'
aS'@'
aa(lp708
S'@'
aS'@'
aS'@'
aS'@'
aS'@'
aS'@'
aS'@'
aS'@'
aS'@'
aS'@'
aS'@'
aS'@'
aS'@'
aS'@'
aS'@'
aS'@'
aS'@'
aS'@'
aS'@'
aS'@'
aa(lp709
S'@'
aS'@'
aS'@'
aS'@'
aS'@'
aS'@'
aS'@'
aS'@'
aS'@'
aS'@'
aS'@'
aS'@'
aS'@'
aS'@'
aS'@'
aS'@'
aS'@'
aS'@'
aS'@'
aS'@'
aa(lp710
S'@'
aS'@'
aS'@'
aS'@'
aS'@'
aS'@'
aS'@'
aS'@'
aS'@'
aS'@'
aS'@'
aS'@'
aS'@'
aS'@'
aS'@'
aS'@'
aS'@'
aS'@'
aS'@'
aS'@'
aa(lp711
S'@'
aS'@'
aS'@'
aS'@'
aS'@'
aS'@'
aS'@'
aS'@'
aS'@'
aS'@'
aS'@'
aS'@'
aS'@'
aS'@'
aS'@'
aS'@'
aS'@'
aS'@'
aS'@'
aS'@'
aa(lp712
S'@'
aS'@'
aS'@'
aS'@'
aS'@'
aS'@'
aS'@'
aS'@'
aS'@'
aS'@'
aS'@'
aS'@'
aS'@'
aS'@'
aS'@'
aS'@'
aS'@'
aS'@'
aS'@'
aS'@'
aa(lp713
S'@'
aS'@'
aS'@'
aS'@'
aS'@'
aS'@'
aS'@'
aS'@'
aS'@'
aS'@'
aS'@'
aS'@'
aS'@'
aS'@'
aS'@'
aS'@'
aS'@'
aS'@'
aS'@'
aS'@'
aa(lp714
S'@'
aS'@'
aS'@'
aS'@'
aS'@'
aS'@'
aS'@'
aS'@'
aS'@'
aS'@'
aS'@'
aS'@'
aS'@'
aS'@'
aS'@'
aS'@'
aS'@'
aS'@'
aS'@'
aS'@'
aa(lp715
S'@'
aS'@'
aS'@'
aS'@'
aS'@'
aS'@'
aS'@'
aS'@'
aS'@'
aS'@'
aS'@'
aS'@'
aS'@'
aS'@'
aS'@'
aS'@'
aS'@'
aS'@'
aS'@'
aS'@'
aa(lp716
S'@'
aS'@'
aS'@'
aS'@'
aS'@'
aS'@'
aS'@'
aS'@'
aS'@'
aS'@'
aS'@'
aS'@'
aS'@'
aS'@'
aS'@'
aS'@'
aS'@'
aS'@'
aS'@'
aS'@'
aa(lp717
S'@'
aS'@'
aS'@'
aS'@'
aS'@'
aS'@'
aS'@'
aS'@'
aS'@'
aS'@'
aS'@'
aS'@'
aS'@'
aS'@'
aS'@'
aS'@'
aS'@'
aS'@'
aS'@'
aS'@'
aa(lp718
S'@'
aS'@'
aS'@'
aS'@'
aS'@'
aS'@'
aS'@'
aS'@'
aS'@'
aS'@'
aS'@'
aS'@'
aS'@'
aS'@'
aS'@'
aS'@'
aS'@'
aS'@'
aS'@'
aS'@'
aa(lp719
S'@'
aS'@'
aS'@'
aS'@'
aS'@'
aS'@'
aS'@'
aS'@'
aS'@'
aS'@'
aS'@'
aS'@'
aS'@'
aS'@'
aS'@'
aS'@'
aS'@'
aS'@'
aS'@'
aS'@'
aa(lp720
S'@'
aS'@'
aS'@'
aS'@'
aS'@'
aS'@'
aS'@'
aS'@'
aS'@'
aS'@'
aS'@'
aS'@'
aS'@'
aS'@'
aS'@'
aS'@'
aS'@'
aS'@'
aS'@'
aS'@'
aa(lp721
S'@'
aS'@'
aS'@'
aS'@'
aS'@'
aS'@'
aS'@'
aS'@'
aS'@'
aS'@'
aS'@'
aS'@'
aS'@'
aS'@'
aS'@'
aS'@'
aS'@'
aS'@'
aS'@'
aS'@'
aasI10
(lp722
(lp723
S'@'
aS'@'
aS'@'
aS'@'
aS'@'
aS'@'
aS'@'
aS'@'
aS'@'
aS'@'
aS'@'
aS'@'
aS'@'
aS'@'
aS'@'
aS'@'
aS'@'
aS'@'
aS'@'
aS'@'
aa(lp724
S'@'
aS'@'
aS'@'
aS'@'
aS'@'
aS'@'
aS'@'
aS'@'
aS'@'
aS'@'
aS'@'
aS'@'
aS'@'
aS'@'
aS'@'
aS'@'
aS'@'
aS'@'
aS'@'
aS'@'
aa(lp725
S'@'
aS'@'
aS'@'
aS'@'
aS'@'
aS'@'
aS'@'
aS'@'
aS'@'
aS'@'
aS'@'
aS'@'
aS'@'
aS'@'
aS'@'
aS'@'
aS'@'
aS'@'
aS'@'
aS'@'
aa(lp726
S'@'
aS'@'
aS'@'
aS'@'
aS'@'
aS'@'
aS'@'
aS'@'
aS'@'
aS'@'
aS'@'
aS'@'
aS'@'
aS'@'
aS'@'
aS'@'
aS'@'
aS'@'
aS'@'
aS'@'
aa(lp727
S'@'
aS'@'
aS'@'
aS'@'
aS'@'
aS'@'
aS'@'
aS'@'
aS'@'
aS'@'
aS'@'
aS'@'
aS'@'
aS'@'
aS'@'
aS'@'
aS'@'
aS'@'
aS'@'
aS'@'
aa(lp728
S'@'
aS'@'
aS'@'
aS'@'
aS'@'
aS'@'
aS'@'
aS'@'
aS'@'
aS'@'
aS'@'
aS'@'
aS'@'
aS'@'
aS'@'
aS'@'
aS'@'
aS'@'
aS'@'
aS'@'
aa(lp729
S'@'
aS'@'
aS'@'
aS'@'
aS'@'
aS'@'
aS'@'
aS'@'
aS'@'
aS'@'
aS'@'
aS'@'
aS'@'
aS'@'
aS'@'
aS'@'
aS'@'
aS'@'
aS'@'
aS'@'
aa(lp730
S'@'
aS'@'
aS'@'
aS'@'
aS'@'
aS'@'
aS'@'
aS'@'
aS'@'
aS'@'
aS'@'
aS'@'
aS'@'
aS'@'
aS'@'
aS'@'
aS'@'
aS'@'
aS'@'
aS'@'
aa(lp731
S'@'
aS'@'
aS'@'
aS'@'
aS'@'
aS'@'
aS'@'
aS'@'
aS'@'
aS'@'
aS'@'
aS'@'
aS'@'
aS'@'
aS'@'
aS'@'
aS'@'
aS'@'
aS'@'
aS'@'
aa(lp732
S'@'
aS'@'
aS'@'
aS'@'
aS'@'
aS'@'
aS'@'
aS'@'
aS'@'
aS'@'
aS'@'
aS'@'
aS'@'
aS'@'
aS'@'
aS'@'
aS'@'
aS'@'
aS'@'
aS'@'
aa(lp733
S'@'
aS'@'
aS'@'
aS'@'
aS'@'
aS'@'
aS'@'
aS'@'
aS'@'
aS'@'
aS'@'
aS'@'
aS'@'
aS'@'
aS'@'
aS'@'
aS'@'
aS'@'
aS'@'
aS'@'
aa(lp734
S'@'
aS'@'
aS'@'
aS'@'
aS'@'
aS'@'
aS'@'
aS'@'
aS'@'
aS'@'
aS'@'
aS'@'
aS'@'
aS'@'
aS'@'
aS'@'
aS'@'
aS'@'
aS'@'
aS'@'
aa(lp735
S'@'
aS'@'
aS'@'
aS'@'
aS'@'
aS'@'
aS'@'
aS'@'
aS'@'
aS'@'
aS'@'
aS'@'
aS'@'
aS'@'
aS'@'
aS'@'
aS'@'
aS'@'
aS'@'
aS'@'
aa(lp736
S'@'
aS'@'
aS'@'
aS'@'
aS'@'
aS'@'
aS'@'
aS'@'
aS'@'
aS'@'
aS'@'
aS'@'
aS'@'
aS'@'
aS'@'
aS'@'
aS'@'
aS'@'
aS'@'
aS'@'
aa(lp737
S'@'
aS'@'
aS'@'
aS'@'
aS'@'
aS'@'
aS'@'
aS'@'
aS'@'
aS'@'
aS'@'
aS'@'
aS'@'
aS'@'
aS'@'
aS'@'
aS'@'
aS'@'
aS'@'
aS'@'
aa(lp738
S'@'
aS'@'
aS'@'
aS'@'
aS'@'
aS'@'
aS'@'
aS'@'
aS'@'
aS'@'
aS'@'
aS'@'
aS'@'
aS'@'
aS'@'
aS'@'
aS'@'
aS'@'
aS'@'
aS'@'
aa(lp739
S'@'
aS'@'
aS'@'
aS'@'
aS'@'
aS'@'
aS'@'
aS'@'
aS'@'
aS'@'
aS'@'
aS'@'
aS'@'
aS'@'
aS'@'
aS'@'
aS'@'
aS'@'
aS'@'
aS'@'
aa(lp740
S'@'
aS'@'
aS'@'
aS'@'
aS'@'
aS'@'
aS'@'
aS'@'
aS'@'
aS'@'
aS'@'
aS'@'
aS'@'
aS'@'
aS'@'
aS'@'
aS'@'
aS'@'
aS'@'
aS'@'
aa(lp741
S'@'
aS'@'
aS'@'
aS'@'
aS'@'
aS'@'
aS'@'
aS'@'
aS'@'
aS'@'
aS'@'
aS'@'
aS'@'
aS'@'
aS'@'
aS'@'
aS'@'
aS'@'
aS'@'
aS'@'
aa(lp742
S'@'
aS'@'
aS'@'
aS'@'
aS'@'
aS'@'
aS'@'
aS'@'
aS'@'
aS'@'
aS'@'
aS'@'
aS'@'
aS'@'
aS'@'
aS'@'
aS'@'
aS'@'
aS'@'
aS'@'
aasI11
(lp743
(lp744
S'@'
aS'@'
aS'@'
aS'@'
aS'@'
aS'@'
aS'@'
aS'@'
aS'@'
aS'@'
aS'@'
aS'@'
aS'@'
aS'@'
aS'@'
aS'@'
aS'@'
aS'@'
aS'@'
aS'@'
aa(lp745
S'@'
aS'@'
aS'@'
aS'@'
aS'@'
aS'@'
aS'@'
aS'@'
aS'@'
aS'@'
aS'@'
aS'@'
aS'@'
aS'@'
aS'@'
aS'@'
aS'@'
aS'@'
aS'@'
aS'@'
aa(lp746
S'@'
aS'@'
aS'@'
aS'@'
aS'@'
aS'@'
aS'@'
aS'@'
aS'@'
aS'@'
aS'@'
aS'@'
aS'@'
aS'@'
aS'@'
aS'@'
aS'@'
aS'@'
aS'@'
aS'@'
aa(lp747
S'@'
aS'@'
aS'@'
aS'@'
aS'@'
aS'@'
aS'@'
aS'@'
aS'@'
aS'@'
aS'@'
aS'@'
aS'@'
aS'@'
aS'@'
aS'@'
aS'@'
aS'@'
aS'@'
aS'@'
aa(lp748
S'@'
aS'@'
aS'@'
aS'@'
aS'@'
aS'@'
aS'@'
aS'@'
aS'@'
aS'@'
aS'@'
aS'@'
aS'@'
aS'@'
aS'@'
aS'@'
aS'@'
aS'@'
aS'@'
aS'@'
aa(lp749
S'@'
aS'@'
aS'@'
aS'@'
aS'@'
aS'@'
aS'@'
aS'@'
aS'@'
aS'@'
aS'@'
aS'@'
aS'@'
aS'@'
aS'@'
aS'@'
aS'@'
aS'@'
aS'@'
aS'@'
aa(lp750
S'@'
aS'@'
aS'@'
aS'@'
aS'@'
aS'@'
aS'@'
aS'@'
aS'@'
aS'@'
aS'@'
aS'@'
aS'@'
aS'@'
aS'@'
aS'@'
aS'@'
aS'@'
aS'@'
aS'@'
aa(lp751
S'@'
aS'@'
aS'@'
aS'@'
aS'@'
aS'@'
aS'@'
aS'@'
aS'@'
aS'@'
aS'@'
aS'@'
aS'@'
aS'@'
aS'@'
aS'@'
aS'@'
aS'@'
aS'@'
aS'@'
aa(lp752
S'@'
aS'@'
aS'@'
aS'@'
aS'@'
aS'@'
aS'@'
aS'@'
aS'@'
aS'@'
aS'@'
aS'@'
aS'@'
aS'@'
aS'@'
aS'@'
aS'@'
aS'@'
aS'@'
aS'@'
aa(lp753
S'@'
aS'@'
aS'@'
aS'@'
aS'@'
aS'@'
aS'@'
aS'@'
aS'@'
aS'@'
aS'@'
aS'@'
aS'@'
aS'@'
aS'@'
aS'@'
aS'@'
aS'@'
aS'@'
aS'@'
aa(lp754
S'@'
aS'@'
aS'@'
aS'@'
aS'@'
aS'@'
aS'@'
aS'@'
aS'@'
aS'@'
aS'@'
aS'@'
aS'@'
aS'@'
aS'@'
aS'@'
aS'@'
aS'@'
aS'@'
aS'@'
aa(lp755
S'@'
aS'@'
aS'@'
aS'@'
aS'@'
aS'@'
aS'@'
aS'@'
aS'@'
aS'@'
aS'@'
aS'@'
aS'@'
aS'@'
aS'@'
aS'@'
aS'@'
aS'@'
aS'@'
aS'@'
aa(lp756
S'@'
aS'@'
aS'@'
aS'@'
aS'@'
aS'@'
aS'@'
aS'@'
aS'@'
aS'@'
aS'@'
aS'@'
aS'@'
aS'@'
aS'@'
aS'@'
aS'@'
aS'@'
aS'@'
aS'@'
aa(lp757
S'@'
aS'@'
aS'@'
aS'@'
aS'@'
aS'@'
aS'@'
aS'@'
aS'@'
aS'@'
aS'@'
aS'@'
aS'@'
aS'@'
aS'@'
aS'@'
aS'@'
aS'@'
aS'@'
aS'@'
aa(lp758
S'@'
aS'@'
aS'@'
aS'@'
aS'@'
aS'@'
aS'@'
aS'@'
aS'@'
aS'@'
aS'@'
aS'@'
aS'@'
aS'@'
aS'@'
aS'@'
aS'@'
aS'@'
aS'@'
aS'@'
aa(lp759
S'@'
aS'@'
aS'@'
aS'@'
aS'@'
aS'@'
aS'@'
aS'@'
aS'@'
aS'@'
aS'@'
aS'@'
aS'@'
aS'@'
aS'@'
aS'@'
aS'@'
aS'@'
aS'@'
aS'@'
aa(lp760
S'@'
aS'@'
aS'@'
aS'@'
aS'@'
aS'@'
aS'@'
aS'@'
aS'@'
aS'@'
aS'@'
aS'@'
aS'@'
aS'@'
aS'@'
aS'@'
aS'@'
aS'@'
aS'@'
aS'@'
aa(lp761
S'@'
aS'@'
aS'@'
aS'@'
aS'@'
aS'@'
aS'@'
aS'@'
aS'@'
aS'@'
aS'@'
aS'@'
aS'@'
aS'@'
aS'@'
aS'@'
aS'@'
aS'@'
aS'@'
aS'@'
aa(lp762
S'@'
aS'@'
aS'@'
aS'@'
aS'@'
aS'@'
aS'@'
aS'@'
aS'@'
aS'@'
aS'@'
aS'@'
aS'@'
aS'@'
aS'@'
aS'@'
aS'@'
aS'@'
aS'@'
aS'@'
aa(lp763
S'@'
aS'@'
aS'@'
aS'@'
aS'@'
aS'@'
aS'@'
aS'@'
aS'@'
aS'@'
aS'@'
aS'@'
aS'@'
aS'@'
aS'@'
aS'@'
aS'@'
aS'@'
aS'@'
aS'@'
aasI12
(lp764
(lp765
S'@'
aS'@'
aS'@'
aS'@'
aS'@'
aS'@'
aS'@'
aS'@'
aS'@'
aS'@'
aS'@'
aS'@'
aS'@'
aS'@'
aS'@'
aS'@'
aS'@'
aS'@'
aS'@'
aS'@'
aa(lp766
S'@'
aS'@'
aS'@'
aS'@'
aS'@'
aS'@'
aS'@'
aS'@'
aS'@'
aS'@'
aS'@'
aS'@'
aS'@'
aS'@'
aS'@'
aS'@'
aS'@'
aS'@'
aS'@'
aS'@'
aa(lp767
S'@'
aS'@'
aS'@'
aS'@'
aS'@'
aS'@'
aS'@'
aS'@'
aS'@'
aS'@'
aS'@'
aS'@'
aS'@'
aS'@'
aS'@'
aS'@'
aS'@'
aS'@'
aS'@'
aS'@'
aa(lp768
S'@'
aS'@'
aS'@'
aS'@'
aS'@'
aS'@'
aS'@'
aS'@'
aS'@'
aS'@'
aS'@'
aS'@'
aS'@'
aS'@'
aS'@'
aS'@'
aS'@'
aS'@'
aS'@'
aS'@'
aa(lp769
S'@'
aS'@'
aS'@'
aS'@'
aS'@'
aS'@'
aS'@'
aS'@'
aS'@'
aS'@'
aS'@'
aS'@'
aS'@'
aS'@'
aS'@'
aS'@'
aS'@'
aS'@'
aS'@'
aS'@'
aa(lp770
S'@'
aS'@'
aS'@'
aS'@'
aS'@'
aS'@'
aS'@'
aS'@'
aS'@'
aS'@'
aS'@'
aS'@'
aS'@'
aS'@'
aS'@'
aS'@'
aS'@'
aS'@'
aS'@'
aS'@'
aa(lp771
S'@'
aS'@'
aS'@'
aS'@'
aS'@'
aS'@'
aS'@'
aS'@'
aS'@'
aS'@'
aS'@'
aS'@'
aS'@'
aS'@'
aS'@'
aS'@'
aS'@'
aS'@'
aS'@'
aS'@'
aa(lp772
S'@'
aS'@'
aS'@'
aS'@'
aS'@'
aS'@'
aS'@'
aS'@'
aS'@'
aS'@'
aS'@'
aS'@'
aS'@'
aS'@'
aS'@'
aS'@'
aS'@'
aS'@'
aS'@'
aS'@'
aa(lp773
S'@'
aS'@'
aS'@'
aS'@'
aS'@'
aS'@'
aS'@'
aS'@'
aS'@'
aS'@'
aS'@'
aS'@'
aS'@'
aS'@'
aS'@'
aS'@'
aS'@'
aS'@'
aS'@'
aS'@'
aa(lp774
S'@'
aS'@'
aS'@'
aS'@'
aS'@'
aS'@'
aS'@'
aS'@'
aS'@'
aS'@'
aS'@'
aS'@'
aS'@'
aS'@'
aS'@'
aS'@'
aS'@'
aS'@'
aS'@'
aS'@'
aa(lp775
S'@'
aS'@'
aS'@'
aS'@'
aS'@'
aS'@'
aS'@'
aS'@'
aS'@'
aS'@'
aS'@'
aS'@'
aS'@'
aS'@'
aS'@'
aS'@'
aS'@'
aS'@'
aS'@'
aS'@'
aa(lp776
S'@'
aS'@'
aS'@'
aS'@'
aS'@'
aS'@'
aS'@'
aS'@'
aS'@'
aS'@'
aS'@'
aS'@'
aS'@'
aS'@'
aS'@'
aS'@'
aS'@'
aS'@'
aS'@'
aS'@'
aa(lp777
S'@'
aS'@'
aS'@'
aS'@'
aS'@'
aS'@'
aS'@'
aS'@'
aS'@'
aS'@'
aS'@'
aS'@'
aS'@'
aS'@'
aS'@'
aS'@'
aS'@'
aS'@'
aS'@'
aS'@'
aa(lp778
S'@'
aS'@'
aS'@'
aS'@'
aS'@'
aS'@'
aS'@'
aS'@'
aS'@'
aS'@'
aS'@'
aS'@'
aS'@'
aS'@'
aS'@'
aS'@'
aS'@'
aS'@'
aS'@'
aS'@'
aa(lp779
S'@'
aS'@'
aS'@'
aS'@'
aS'@'
aS'@'
aS'@'
aS'@'
aS'@'
aS'@'
aS'@'
aS'@'
aS'@'
aS'@'
aS'@'
aS'@'
aS'@'
aS'@'
aS'@'
aS'@'
aa(lp780
S'@'
aS'@'
aS'@'
aS'@'
aS'@'
aS'@'
aS'@'
aS'@'
aS'@'
aS'@'
aS'@'
aS'@'
aS'@'
aS'@'
aS'@'
aS'@'
aS'@'
aS'@'
aS'@'
aS'@'
aa(lp781
S'@'
aS'@'
aS'@'
aS'@'
aS'@'
aS'@'
aS'@'
aS'@'
aS'@'
aS'@'
aS'@'
aS'@'
aS'@'
aS'@'
aS'@'
aS'@'
aS'@'
aS'@'
aS'@'
aS'@'
aa(lp782
S'@'
aS'@'
aS'@'
aS'@'
aS'@'
aS'@'
aS'@'
aS'@'
aS'@'
aS'@'
aS'@'
aS'@'
aS'@'
aS'@'
aS'@'
aS'@'
aS'@'
aS'@'
aS'@'
aS'@'
aa(lp783
S'@'
aS'@'
aS'@'
aS'@'
aS'@'
aS'@'
aS'@'
aS'@'
aS'@'
aS'@'
aS'@'
aS'@'
aS'@'
aS'@'
aS'@'
aS'@'
aS'@'
aS'@'
aS'@'
aS'@'
aa(lp784
S'@'
aS'@'
aS'@'
aS'@'
aS'@'
aS'@'
aS'@'
aS'@'
aS'@'
aS'@'
aS'@'
aS'@'
aS'@'
aS'@'
aS'@'
aS'@'
aS'@'
aS'@'
aS'@'
aS'@'
aas.