(dp1
I0
(lp2
(lp3
S'X'
aS'X'
aS'X'
aS'X'
aS'X'
aS'X'
aS'X'
aS'X'
aS'X'
aS'X'
aS'X'
aS'X'
aS'X'
aS'X'
aS'X'
aS'X'
aS'X'
aS'X'
aS'X'
aS'3_0'
p4
aa(lp5
S'X'
aS'X'
aS'X'
aS'X'
aS'X'
aS'X'
aS'X'
aS'X'
aS'X'
aS'X'
aS'X'
aS'X'
aS'X'
aS'X'
aS'X'
aS'X'
aS'X'
aS'X'
aS'X'
aS'3_0'
p6
aa(lp7
S'X'
aS'X'
aS'X'
aS'X'
aS'X'
aS'X'
aS'X'
aS'X'
aS'X'
aS'X'
aS'X'
aS'X'
aS'X'
aS'X'
aS'X'
aS'X'
aS'X'
aS'X'
aS'X'
aS'3_0'
p8
aa(lp9
S'X'
aS'X'
aS'X'
aS'X'
aS'X'
aS'X'
aS'X'
aS'X'
aS'X'
aS'X'
aS'X'
aS'X'
aS'X'
aS'X'
aS'X'
aS'X'
aS'X'
aS'X'
aS'X'
aS'3_0'
p10
aa(lp11
S'X'
aS'X'
aS'X'
aS'X'
aS'X'
aS'X'
aS'X'
aS'X'
aS'X'
aS'X'
aS'X'
aS'X'
aS'X'
aS'X'
aS'X'
aS'X'
aS'X'
aS'X'
aS'X'
aS'3_0'
p12
aa(lp13
S'X'
aS'X'
aS'X'
aS'X'
aS'X'
aS'X'
aS'X'
aS'X'
aS'X'
aS'X'
aS'X'
aS'X'
aS'X'
aS'X'
aS'X'
aS'X'
aS'X'
aS'X'
aS'X'
aS'3_0'
p14
aa(lp15
S'X'
aS'X'
aS'X'
aS'X'
aS'X'
aS'X'
aS'X'
aS'X'
aS'X'
aS'X'
aS'X'
aS'X'
aS'X'
aS'X'
aS'X'
aS'X'
aS'X'
aS'X'
aS'X'
aS'3_0'
p16
aa(lp17
S'3_0'
p18
aS'X'
aS'X'
aS'X'
aS'X'
aS'X'
aS'X'
aS'X'
aS'X'
aS'X'
aS'X'
aS'X'
aS'X'
aS'X'
aS'X'
aS'X'
aS'X'
aS'X'
aS'X'
aS'3_0'
p19
aa(lp20
S'3_0'
p21
aS'3_0'
p22
aS'3_0'
p23
aS'X'
aS'X'
aS'X'
aS'X'
aS'X'
aS'X'
aS'X'
aS'X'
aS'X'
aS'X'
aS'X'
aS'X'
aS'X'
aS'X'
aS'X'
aS'X'
aS'3_0'
p24
aa(lp25
S'3_0'
p26
aS'3_0'
p27
aS'3_0'
p28
aS'3_0'
p29
aS'X'
aS'X'
aS'X'
aS'X'
aS'X'
aS'X'
aS'X'
aS'X'
aS'X'
aS'X'
aS'X'
aS'X'
aS'X'
aS'X'
aS'X'
aS'3_0'
p30
aa(lp31
S'3_0'
p32
aS'3_0'
p33
aS'3_0'
p34
aS'3_0'
p35
aS'X'
aS'X'
aS'X'
aS'X'
aS'X'
aS'X'
aS'X'
aS'X'
aS'X'
aS'X'
aS'X'
aS'X'
aS'X'
aS'X'
aS'X'
aS'3_0'
p36
aa(lp37
S'3_0'
p38
aS'3_0'
p39
aS'3_0'
p40
aS'3_0'
p41
aS'X'
aS'X'
aS'X'
aS'X'
aS'X'
aS'X'
aS'X'
aS'X'
aS'X'
aS'X'
aS'X'
aS'X'
aS'X'
aS'X'
aS'X'
aS'3_0'
p42
aa(lp43
S'3_0'
p44
aS'3_0'
p45
aS'3_0'
p46
aS'3_0'
p47
aS'X'
aS'X'
aS'X'
aS'X'
aS'X'
aS'X'
aS'X'
aS'X'
aS'X'
aS'X'
aS'X'
aS'X'
aS'X'
aS'X'
aS'X'
aS'3_0'
p48
aa(lp49
S'3_0'
p50
aS'3_0'
p51
aS'3_0'
p52
aS'3_0'
p53
aS'X'
aS'X'
aS'X'
aS'X'
aS'X'
aS'X'
aS'X'
aS'X'
aS'X'
aS'X'
aS'X'
aS'X'
aS'X'
aS'X'
aS'X'
aS'3_0'
p54
aa(lp55
S'3_0'
p56
aS'3_0'
p57
aS'3_0'
p58
aS'X'
aS'X'
aS'X'
aS'X'
aS'X'
aS'X'
aS'X'
aS'X'
aS'X'
aS'X'
aS'X'
aS'X'
aS'X'
aS'X'
aS'X'
aS'X'
aS'3_0'
p59
aa(lp60
S'3_0'
p61
aS'3_0'
p62
aS'3_0'
p63
aS'3_0'
p64
aS'X'
aS'X'
aS'X'
aS'X'
aS'X'
aS'X'
aS'X'
aS'X'
aS'X'
aS'X'
aS'X'
aS'X'
aS'X'
aS'X'
aS'X'
aS'3_0'
p65
aa(lp66
S'3_0'
p67
aS'3_0'
p68
aS'3_0'
p69
aS'3_0'
p70
aS'X'
aS'X'
aS'X'
aS'X'
aS'X'
aS'X'
aS'X'
aS'X'
aS'X'
aS'X'
aS'X'
aS'X'
aS'X'
aS'X'
aS'X'
aS'3_0'
p71
aa(lp72
S'3_0'
p73
aS'3_0'
p74
aS'3_0'
p75
aS'X'
aS'X'
aS'X'
aS'X'
aS'X'
aS'X'
aS'X'
aS'X'
aS'X'
aS'X'
aS'X'
aS'X'
aS'X'
aS'X'
aS'X'
aS'X'
aS'3_0'
p76
aa(lp77
S'X'
aS'X'
aS'X'
aS'X'
aS'X'
aS'X'
aS'X'
aS'X'
aS'X'
aS'X'
aS'X'
aS'X'
aS'X'
aS'X'
aS'X'
aS'X'
aS'X'
aS'X'
aS'X'
aS'3_0'
p78
aa(lp79
S'3_0'
p80
aS'3_0'
p81
aS'3_0'
p82
aS'3_0'
p83
aS'3_0'
p84
aS'3_0'
p85
aS'3_0'
p86
aS'3_0'
p87
aS'3_0'
p88
aS'3_0'
p89
aS'3_0'
p90
aS'3_0'
p91
aS'3_0'
p92
aS'3_0'
p93
aS'3_0'
p94
aS'3_0'
p95
aS'3_0'
p96
aS'3_0'
p97
aS'3_0'
p98
aS'3_0'
p99
aasI1
(lp100
(lp101
S'X'
aS'X'
aS'X'
aS'X'
aS'X'
aS'X'
aS'X'
aS'X'
aS'X'
aS'X'
aS'X'
aS'X'
aS'X'
aS'X'
aS'X'
aS'X'
aS'X'
aS'X'
aS'X'
aS'3_0'
p102
aa(lp103
S'X'
aS'X'
aS'X'
aS'X'
aS'X'
aS'X'
aS'X'
aS'X'
aS'X'
aS'X'
aS'X'
aS'X'
aS'X'
aS'X'
aS'X'
aS'X'
aS'X'
aS'X'
aS'X'
aS'3_0'
p104
aa(lp105
S'X'
aS'X'
aS'X'
aS'X'
aS'X'
aS'X'
aS'X'
aS'X'
aS'X'
aS'X'
aS'X'
aS'X'
aS'X'
aS'X'
aS'X'
aS'X'
aS'X'
aS'X'
aS'X'
aS'3_0'
p106
aa(lp107
S'X'
aS'X'
aS'X'
aS'X'
aS'X'
aS'X'
aS'X'
aS'X'
aS'X'
aS'X'
aS'X'
aS'X'
aS'X'
aS'X'
aS'X'
aS'X'
aS'X'
aS'X'
aS'X'
aS'3_0'
p108
aa(lp109
S'X'
aS'X'
aS'X'
aS'X'
aS'X'
aS'X'
aS'X'
aS'X'
aS'X'
aS'X'
aS'X'
aS'X'
aS'X'
aS'X'
aS'X'
aS'X'
aS'X'
aS'X'
aS'X'
aS'3_0'
p110
aa(lp111
S'3_0'
p112
aS'3_0'
p113
aS'3_0'
p114
aS'X'
aS'X'
aS'X'
aS'X'
aS'X'
aS'X'
aS'X'
aS'X'
aS'X'
aS'X'
aS'X'
aS'X'
aS'X'
aS'X'
aS'X'
aS'X'
aS'3_0'
p115
aa(lp116
S'3_0'
p117
aS'3_0'
p118
aS'3_0'
p119
aS'3_0'
p120
aS'X'
aS'X'
aS'X'
aS'X'
aS'X'
aS'X'
aS'X'
aS'X'
aS'X'
aS'X'
aS'X'
aS'X'
aS'X'
aS'X'
aS'X'
aS'3_0'
p121
aa(lp122
S'1'
aS'3_0'
p123
aS'3_0'
p124
aS'3_0'
p125
aS'X'
aS'X'
aS'X'
aS'X'
aS'X'
aS'X'
aS'X'
aS'X'
aS'X'
aS'X'
aS'X'
aS'X'
aS'X'
aS'X'
aS'X'
aS'3_0'
p126
aa(lp127
S'1'
aS'1'
aS'1'
aS'3_0'
p128
aS'3_0'
p129
aS'X'
aS'X'
aS'X'
aS'X'
aS'X'
aS'X'
aS'X'
aS'X'
aS'X'
aS'X'
aS'X'
aS'X'
aS'X'
aS'X'
aS'3_0'
p130
aa(lp131
S'1'
aS'1'
aS'1'
aS'1'
aS'3_0'
p132
aS'3_0'
p133
aS'X'
aS'X'
aS'X'
aS'X'
aS'X'
aS'X'
aS'X'
aS'X'
aS'X'
aS'X'
aS'X'
aS'X'
aS'X'
aS'3_0'
p134
aa(lp135
S'1'
aS'1'
aS'1'
aS'1'
aS'3_0'
p136
aS'3_0'
p137
aS'X'
aS'X'
aS'X'
aS'X'
aS'X'
aS'X'
aS'X'
aS'X'
aS'X'
aS'X'
aS'X'
aS'X'
aS'X'
aS'3_0'
p138
aa(lp139
S'1'
aS'1'
aS'1'
aS'1'
aS'3_0'
p140
aS'3_0'
p141
aS'X'
aS'X'
aS'X'
aS'X'
aS'X'
aS'X'
aS'X'
aS'X'
aS'X'
aS'X'
aS'X'
aS'X'
aS'X'
aS'3_0'
p142
aa(lp143
S'1'
aS'1'
aS'1'
aS'1'
aS'3_0'
p144
aS'3_0'
p145
aS'X'
aS'X'
aS'X'
aS'X'
aS'X'
aS'X'
aS'X'
aS'X'
aS'X'
aS'X'
aS'X'
aS'X'
aS'X'
aS'3_0'
p146
aa(lp147
S'1'
aS'1'
aS'1'
aS'1'
aS'3_0'
p148
aS'3_0'
p149
aS'X'
aS'X'
aS'X'
aS'X'
aS'X'
aS'X'
aS'X'
aS'X'
aS'X'
aS'X'
aS'X'
aS'X'
aS'X'
aS'3_0'
p150
aa(lp151
S'1'
aS'1'
aS'1'
aS'3_0'
p152
aS'3_0'
p153
aS'3_0'
p154
aS'X'
aS'X'
aS'X'
aS'X'
aS'X'
aS'X'
aS'X'
aS'X'
aS'X'
aS'X'
aS'X'
aS'X'
aS'X'
aS'3_0'
p155
aa(lp156
S'1'
aS'1'
aS'1'
aS'1'
aS'3_0'
p157
aS'3_0'
p158
aS'X'
aS'X'
aS'X'
aS'X'
aS'X'
aS'X'
aS'X'
aS'X'
aS'X'
aS'X'
aS'X'
aS'X'
aS'X'
aS'3_0'
p159
aa(lp160
S'1'
aS'1'
aS'1'
aS'1'
aS'3_0'
p161
aS'3_0'
p162
aS'X'
aS'X'
aS'X'
aS'X'
aS'X'
aS'X'
aS'X'
aS'X'
aS'X'
aS'X'
aS'X'
aS'X'
aS'X'
aS'3_0'
p163
aa(lp164
S'1'
aS'1'
aS'1'
aS'3_0'
p165
aS'3_0'
p166
aS'X'
aS'X'
aS'X'
aS'X'
aS'X'
aS'X'
aS'X'
aS'X'
aS'X'
aS'X'
aS'X'
aS'X'
aS'X'
aS'X'
aS'3_0'
p167
aa(lp168
S'3_0'
p169
aS'3_0'
p170
aS'3_0'
p171
aS'3_0'
p172
aS'3_0'
p173
aS'X'
aS'X'
aS'X'
aS'X'
aS'X'
aS'X'
aS'X'
aS'X'
aS'X'
aS'X'
aS'X'
aS'X'
aS'X'
aS'X'
aS'3_0'
p174
aa(lp175
S'3_0'
p176
aS'3_0'
p177
aS'3_0'
p178
aS'3_0'
p179
aS'3_0'
p180
aS'3_0'
p181
aS'3_0'
p182
aS'3_0'
p183
aS'3_0'
p184
aS'3_0'
p185
aS'3_0'
p186
aS'3_0'
p187
aS'3_0'
p188
aS'3_0'
p189
aS'3_0'
p190
aS'3_0'
p191
aS'3_0'
p192
aS'3_0'
p193
aS'3_0'
p194
aS'3_0'
p195
aasI2
(lp196
(lp197
S'X'
aS'X'
aS'X'
aS'X'
aS'X'
aS'X'
aS'X'
aS'X'
aS'X'
aS'X'
aS'X'
aS'X'
aS'X'
aS'X'
aS'X'
aS'X'
aS'X'
aS'X'
aS'X'
aS'3_0'
p198
aa(lp199
S'X'
aS'X'
aS'X'
aS'X'
aS'X'
aS'X'
aS'X'
aS'X'
aS'X'
aS'X'
aS'X'
aS'X'
aS'X'
aS'X'
aS'X'
aS'X'
aS'X'
aS'X'
aS'X'
aS'3_0'
p200
aa(lp201
S'3_0'
p202
aS'3_0'
p203
aS'X'
aS'X'
aS'X'
aS'X'
aS'X'
aS'X'
aS'X'
aS'X'
aS'X'
aS'X'
aS'X'
aS'X'
aS'X'
aS'X'
aS'X'
aS'X'
aS'X'
aS'3_0'
p204
aa(lp205
S'3_0'
p206
aS'3_0'
p207
aS'3_0'
p208
aS'3_0'
p209
aS'X'
aS'X'
aS'X'
aS'X'
aS'X'
aS'X'
aS'X'
aS'X'
aS'X'
aS'X'
aS'X'
aS'X'
aS'X'
aS'X'
aS'X'
aS'3_0'
p210
aa(lp211
S'3_0'
p212
aS'3_0'
p213
aS'3_0'
p214
aS'3_0'
p215
aS'3_0'
p216
aS'X'
aS'X'
aS'X'
aS'X'
aS'X'
aS'X'
aS'X'
aS'X'
aS'X'
aS'X'
aS'X'
aS'X'
aS'X'
aS'X'
aS'3_0'
p217
aa(lp218
S'1'
aS'1'
aS'1'
aS'3_0'
p219
aS'3_0'
p220
aS'3_0'
p221
aS'X'
aS'X'
aS'X'
aS'X'
aS'X'
aS'X'
aS'X'
aS'X'
aS'X'
aS'X'
aS'X'
aS'X'
aS'X'
aS'3_0'
p222
aa(lp223
S'1'
aS'1'
aS'1'
aS'1'
aS'3_0'
p224
aS'3_0'
p225
aS'3_0'
p226
aS'X'
aS'X'
aS'X'
aS'X'
aS'X'
aS'X'
aS'X'
aS'X'
aS'X'
aS'X'
aS'X'
aS'X'
aS'3_0'
p227
aa(lp228
S'1'
aS'1'
aS'1'
aS'1'
aS'3_0'
p229
aS'3_0'
p230
aS'3_0'
p231
aS'3_0'
p232
aS'X'
aS'X'
aS'X'
aS'X'
aS'X'
aS'X'
aS'X'
aS'X'
aS'X'
aS'X'
aS'X'
aS'3_0'
p233
aa(lp234
S'1'
aS'1'
aS'1'
aS'1'
aS'1'
aS'3_0'
p235
aS'3_0'
p236
aS'3_0'
p237
aS'3_0'
p238
aS'X'
aS'X'
aS'X'
aS'X'
aS'X'
aS'X'
aS'X'
aS'X'
aS'X'
aS'X'
aS'3_0'
p239
aa(lp240
S'1'
aS'1'
aS'1'
aS'1'
aS'1'
aS'1'
aS'3_0'
p241
aS'3_0'
p242
aS'3_0'
p243
aS'X'
aS'X'
aS'X'
aS'X'
aS'X'
aS'X'
aS'X'
aS'X'
aS'X'
aS'X'
aS'3_0'
p244
aa(lp245
S'1'
aS'1'
aS'1'
aS'1'
aS'1'
aS'1'
aS'3_0'
p246
aS'3_0'
p247
aS'3_0'
p248
aS'X'
aS'X'
aS'X'
aS'X'
aS'X'
aS'X'
aS'X'
aS'X'
aS'X'
aS'X'
aS'3_0'
p249
aa(lp250
S'1'
aS'1'
aS'1'
aS'1'
aS'1'
aS'1'
aS'3_0'
p251
aS'3_0'
p252
aS'X'
aS'X'
aS'X'
aS'X'
aS'X'
aS'X'
aS'X'
aS'X'
aS'X'
aS'X'
aS'X'
aS'3_0'
p253
aa(lp254
S'1'
aS'1'
aS'1'
aS'1'
aS'1'
aS'1'
aS'3_0'
p255
aS'3_0'
p256
aS'X'
aS'X'
aS'X'
aS'X'
aS'X'
aS'X'
aS'X'
aS'X'
aS'X'
aS'X'
aS'X'
aS'3_0'
p257
aa(lp258
S'1'
aS'1'
aS'1'
aS'1'
aS'1'
aS'1'
aS'3_0'
p259
aS'3_0'
p260
aS'X'
aS'X'
aS'X'
aS'X'
aS'X'
aS'X'
aS'X'
aS'X'
aS'X'
aS'X'
aS'X'
aS'3_0'
p261
aa(lp262
S'1'
aS'1'
aS'1'
aS'1'
aS'1'
aS'1'
aS'3_0'
p263
aS'X'
aS'X'
aS'X'
aS'X'
aS'X'
aS'X'
aS'X'
aS'X'
aS'X'
aS'X'
aS'X'
aS'X'
aS'3_0'
p264
aa(lp265
S'1'
aS'1'
aS'1'
aS'1'
aS'1'
aS'1'
aS'3_0'
p266
aS'X'
aS'X'
aS'X'
aS'X'
aS'X'
aS'X'
aS'X'
aS'X'
aS'X'
aS'X'
aS'X'
aS'X'
aS'3_0'
p267
aa(lp268
S'1'
aS'1'
aS'1'
aS'1'
aS'1'
aS'1'
aS'3_0'
p269
aS'X'
aS'X'
aS'X'
aS'X'
aS'X'
aS'X'
aS'X'
aS'X'
aS'X'
aS'X'
aS'X'
aS'X'
aS'3_0'
p270
aa(lp271
S'1'
aS'1'
aS'1'
aS'1'
aS'1'
aS'3_0'
p272
aS'3_0'
p273
aS'X'
aS'X'
aS'X'
aS'X'
aS'X'
aS'X'
aS'X'
aS'X'
aS'X'
aS'X'
aS'X'
aS'X'
aS'3_0'
p274
aa(lp275
S'1'
aS'1'
aS'1'
aS'1'
aS'1'
aS'3_0'
p276
aS'3_0'
p277
aS'X'
aS'X'
aS'X'
aS'X'
aS'X'
aS'X'
aS'X'
aS'X'
aS'X'
aS'X'
aS'X'
aS'X'
aS'3_0'
p278
aa(lp279
S'1'
aS'1'
aS'1'
aS'1'
aS'3_0'
p280
aS'3_0'
p281
aS'3_0'
p282
aS'3_0'
p283
aS'3_0'
p284
aS'3_0'
p285
aS'3_0'
p286
aS'3_0'
p287
aS'3_0'
p288
aS'3_0'
p289
aS'3_0'
p290
aS'3_0'
p291
aS'3_0'
p292
aS'3_0'
p293
aS'3_0'
p294
aS'3_0'
p295
aasI3
(lp296
(lp297
S'3_0'
p298
aS'3_0'
p299
aS'3_0'
p300
aS'3_0'
p301
aS'3_0'
p302
aS'3_0'
p303
aS'X'
aS'X'
aS'X'
aS'X'
aS'X'
aS'X'
aS'X'
aS'X'
aS'X'
aS'X'
aS'X'
aS'X'
aS'X'
aS'3_0'
p304
aa(lp305
S'3_0'
p306
aS'3_0'
p307
aS'3_0'
p308
aS'3_0'
p309
aS'3_0'
p310
aS'3_0'
p311
aS'3_0'
p312
aS'X'
aS'X'
aS'X'
aS'X'
aS'X'
aS'X'
aS'X'
aS'X'
aS'X'
aS'X'
aS'X'
aS'X'
aS'3_0'
p313
aa(lp314
S'1'
aS'1'
aS'3_0'
p315
aS'3_0'
p316
aS'3_0'
p317
aS'3_0'
p318
aS'3_0'
p319
aS'3_0'
p320
aS'X'
aS'X'
aS'X'
aS'X'
aS'X'
aS'X'
aS'X'
aS'X'
aS'X'
aS'X'
aS'X'
aS'3_0'
p321
aa(lp322
S'1'
aS'1'
aS'1'
aS'1'
aS'3_0'
p323
aS'3_0'
p324
aS'3_0'
p325
aS'3_0'
p326
aS'3_0'
p327
aS'3_0'
p328
aS'X'
aS'X'
aS'X'
aS'X'
aS'X'
aS'X'
aS'X'
aS'X'
aS'X'
aS'3_0'
p329
aa(lp330
S'1'
aS'1'
aS'1'
aS'1'
aS'1'
aS'3_0'
p331
aS'3_0'
p332
aS'3_0'
p333
aS'3_0'
p334
aS'3_0'
p335
aS'3_0'
p336
aS'X'
aS'X'
aS'X'
aS'X'
aS'X'
aS'X'
aS'X'
aS'X'
aS'3_0'
p337
aa(lp338
S'1'
aS'1'
aS'1'
aS'1'
aS'1'
aS'1'
aS'3_0'
p339
aS'3_0'
p340
aS'3_0'
p341
aS'3_0'
p342
aS'3_0'
p343
aS'3_0'
p344
aS'X'
aS'X'
aS'X'
aS'X'
aS'X'
aS'X'
aS'X'
aS'3_0'
p345
aa(lp346
S'1'
aS'1'
aS'1'
aS'1'
aS'1'
aS'1'
aS'1'
aS'3_0'
p347
aS'3_0'
p348
aS'3_0'
p349
aS'3_0'
p350
aS'3_0'
p351
aS'3_0'
p352
aS'X'
aS'X'
aS'X'
aS'X'
aS'X'
aS'X'
aS'3_0'
p353
aa(lp354
S'1'
aS'1'
aS'1'
aS'1'
aS'1'
aS'1'
aS'1'
aS'1'
aS'3_0'
p355
aS'3_0'
p356
aS'3_0'
p357
aS'3_0'
p358
aS'3_0'
p359
aS'X'
aS'X'
aS'X'
aS'X'
aS'X'
aS'X'
aS'3_0'
p360
aa(lp361
S'1'
aS'1'
aS'1'
aS'1'
aS'1'
aS'1'
aS'1'
aS'1'
aS'1'
aS'3_0'
p362
aS'3_0'
p363
aS'3_0'
p364
aS'3_0'
p365
aS'3_0'
p366
aS'X'
aS'X'
aS'X'
aS'X'
aS'X'
aS'3_0'
p367
aa(lp368
S'1'
aS'1'
aS'1'
aS'1'
aS'1'
aS'1'
aS'1'
aS'1'
aS'1'
aS'3_0'
p369
aS'3_0'
p370
aS'3_0'
p371
aS'3_0'
p372
aS'3_0'
p373
aS'X'
aS'X'
aS'X'
aS'X'
aS'X'
aS'3_0'
p374
aa(lp375
S'1'
aS'1'
aS'1'
aS'1'
aS'1'
aS'1'
aS'1'
aS'1'
aS'1'
aS'3_0'
p376
aS'3_0'
p377
aS'3_0'
p378
aS'3_0'
p379
aS'3_0'
p380
aS'X'
aS'X'
aS'X'
aS'X'
aS'X'
aS'3_0'
p381
aa(lp382
S'1'
aS'1'
aS'1'
aS'1'
aS'1'
aS'1'
aS'1'
aS'1'
aS'3_0'
p383
aS'3_0'
p384
aS'3_0'
p385
aS'3_0'
p386
aS'3_0'
p387
aS'X'
aS'X'
aS'X'
aS'X'
aS'X'
aS'X'
aS'3_0'
p388
aa(lp389
S'1'
aS'1'
aS'1'
aS'1'
aS'1'
aS'1'
aS'1'
aS'1'
aS'3_0'
p390
aS'3_0'
p391
aS'3_0'
p392
aS'3_0'
p393
aS'3_0'
p394
aS'X'
aS'X'
aS'X'
aS'X'
aS'X'
aS'X'
aS'3_0'
p395
aa(lp396
S'1'
aS'1'
aS'1'
aS'1'
aS'1'
aS'1'
aS'1'
aS'1'
aS'3_0'
p397
aS'3_0'
p398
aS'3_0'
p399
aS'3_0'
p400
aS'X'
aS'X'
aS'X'
aS'X'
aS'X'
aS'X'
aS'X'
aS'3_0'
p401
aa(lp402
S'1'
aS'1'
aS'1'
aS'1'
aS'1'
aS'1'
aS'1'
aS'3_0'
p403
aS'3_0'
p404
aS'3_0'
p405
aS'3_0'
p406
aS'X'
aS'X'
aS'X'
aS'X'
aS'X'
aS'X'
aS'X'
aS'X'
aS'3_0'
p407
aa(lp408
S'1'
aS'1'
aS'1'
aS'1'
aS'1'
aS'1'
aS'1'
aS'3_0'
p409
aS'3_0'
p410
aS'3_0'
p411
aS'3_0'
p412
aS'X'
aS'X'
aS'X'
aS'X'
aS'X'
aS'X'
aS'X'
aS'X'
aS'3_0'
p413
aa(lp414
S'1'
aS'1'
aS'1'
aS'1'
aS'1'
aS'1'
aS'1'
aS'3_0'
p415
aS'3_0'
p416
aS'3_0'
p417
aS'3_0'
p418
aS'X'
aS'X'
aS'X'
aS'X'
aS'X'
aS'X'
aS'X'
aS'X'
aS'3_0'
p419
aa(lp420
S'1'
aS'1'
aS'1'
aS'1'
aS'1'
aS'1'
aS'1'
aS'3_0'
p421
aS'3_0'
p422
aS'3_0'
p423
aS'3_0'
p424
aS'X'
aS'X'
aS'X'
aS'X'
aS'X'
aS'X'
aS'X'
aS'X'
aS'3_0'
p425
aa(lp426
S'1'
aS'1'
aS'1'
aS'1'
aS'1'
aS'1'
aS'1'
aS'3_0'
p427
aS'3_0'
p428
aS'3_0'
p429
aS'3_0'
p430
aS'X'
aS'X'
aS'X'
aS'X'
aS'X'
aS'X'
aS'X'
aS'X'
aS'3_0'
p431
aa(lp432
S'1'
aS'1'
aS'1'
aS'1'
aS'1'
aS'1'
aS'3_0'
p433
aS'3_0'
p434
aS'3_0'
p435
aS'3_0'
p436
aS'3_0'
p437
aS'3_0'
p438
aS'3_0'
p439
aS'3_0'
p440
aS'3_0'
p441
aS'3_0'
p442
aS'3_0'
p443
aS'3_0'
p444
aS'3_0'
p445
aS'3_0'
p446
aasI4
(lp447
(lp448
S'1'
aS'1'
aS'1'
aS'1'
aS'1'
aS'2'
aS'0_0'
p449
aS'0_0'
p450
aS'X'
aS'X'
aS'X'
aS'X'
aS'X'
aS'X'
aS'X'
aS'X'
aS'X'
aS'X'
aS'X'
aS'3_0'
p451
aa(lp452
S'1'
aS'1'
aS'1'
aS'1'
aS'1'
aS'2'
aS'2'
aS'0_0'
p453
aS'0_0'
p454
aS'X'
aS'X'
aS'X'
aS'X'
aS'X'
aS'X'
aS'X'
aS'X'
aS'X'
aS'X'
aS'3_0'
p455
aa(lp456
S'1'
aS'1'
aS'1'
aS'1'
aS'1'
aS'1'
aS'2'
aS'2'
aS'0_0'
p457
aS'0_0'
p458
aS'X'
aS'X'
aS'X'
aS'X'
aS'X'
aS'X'
aS'X'
aS'X'
aS'X'
aS'3_0'
p459
aa(lp460
S'1'
aS'1'
aS'1'
aS'1'
aS'1'
aS'1'
aS'1'
aS'2'
aS'2'
aS'2'
aS'0_0'
p461
aS'X'
aS'X'
aS'X'
aS'X'
aS'X'
aS'X'
aS'X'
aS'X'
aS'3_0'
p462
aa(lp463
S'1'
aS'1'
aS'1'
aS'1'
aS'1'
aS'1'
aS'1'
aS'1'
aS'1'
aS'2'
aS'2'
aS'3_0'
p464
aS'X'
aS'X'
aS'X'
aS'X'
aS'X'
aS'X'
aS'X'
aS'3_0'
p465
aa(lp466
S'1'
aS'1'
aS'1'
aS'1'
aS'1'
aS'1'
aS'1'
aS'1'
aS'1'
aS'1'
aS'2'
aS'2'
aS'3_0'
p467
aS'X'
aS'X'
aS'X'
aS'X'
aS'X'
aS'X'
aS'3_0'
p468
aa(lp469
S'1'
aS'1'
aS'1'
aS'1'
aS'1'
aS'1'
aS'1'
aS'1'
aS'1'
aS'1'
aS'1'
aS'2'
aS'2'
aS'X'
aS'X'
aS'X'
aS'X'
aS'X'
aS'X'
aS'3_0'
p470
aa(lp471
S'1'
aS'1'
aS'1'
aS'1'
aS'1'
aS'1'
aS'1'
aS'1'
aS'1'
aS'1'
aS'1'
aS'1'
aS'2'
aS'0_0'
p472
aS'X'
aS'X'
aS'X'
aS'X'
aS'X'
aS'3_0'
p473
aa(lp474
S'1'
aS'1'
aS'1'
aS'1'
aS'1'
aS'1'
aS'1'
aS'1'
aS'1'
aS'1'
aS'1'
aS'1'
aS'2'
aS'2'
aS'0_0'
p475
aS'0_0'
p476
aS'0_0'
p477
aS'X'
aS'X'
aS'3_0'
p478
aa(lp479
S'1'
aS'1'
aS'1'
aS'1'
aS'1'
aS'1'
aS'1'
aS'1'
aS'1'
aS'1'
aS'1'
aS'1'
aS'1'
aS'2'
aS'0_0'
p480
aS'0_0'
p481
aS'0_0'
p482
aS'0_0'
p483
aS'X'
aS'3_0'
p484
aa(lp485
S'1'
aS'1'
aS'1'
aS'1'
aS'1'
aS'1'
aS'1'
aS'1'
aS'1'
aS'1'
aS'1'
aS'1'
aS'2'
aS'2'
aS'0_0'
p486
aS'0_0'
p487
aS'0_0'
p488
aS'0_0'
p489
aS'0_0'
p490
aS'3_0'
p491
aa(lp492
S'1'
aS'1'
aS'1'
aS'1'
aS'1'
aS'1'
aS'1'
aS'1'
aS'1'
aS'1'
aS'1'
aS'1'
aS'2'
aS'0_0'
p493
aS'0_0'
p494
aS'0_0'
p495
aS'0_0'
p496
aS'0_0'
p497
aS'0_0'
p498
aS'3_0'
p499
aa(lp500
S'1'
aS'1'
aS'1'
aS'1'
aS'1'
aS'1'
aS'1'
aS'1'
aS'1'
aS'1'
aS'1'
aS'2'
aS'2'
aS'0_0'
p501
aS'0_0'
p502
aS'0_0'
p503
aS'0_0'
p504
aS'0_0'
p505
aS'0_0'
p506
aS'0_0'
p507
aa(lp508
S'1'
aS'1'
aS'1'
aS'1'
aS'1'
aS'1'
aS'1'
aS'1'
aS'1'
aS'1'
aS'2'
aS'2'
aS'0_0'
p509
aS'0_0'
p510
aS'0_0'
p511
aS'0_0'
p512
aS'0_0'
p513
aS'0_0'
p514
aS'0_0'
p515
aS'0_0'
p516
aa(lp517
S'1'
aS'1'
aS'1'
aS'1'
aS'1'
aS'1'
aS'1'
aS'1'
aS'1'
aS'1'
aS'2'
aS'0_0'
p518
aS'0_0'
p519
aS'0_0'
p520
aS'0_0'
p521
aS'0_0'
p522
aS'0_0'
p523
aS'0_0'
p524
aS'0_0'
p525
aS'0_0'
p526
aa(lp527
S'1'
aS'1'
aS'1'
aS'1'
aS'1'
aS'1'
aS'1'
aS'1'
aS'1'
aS'1'
aS'2'
aS'0_0'
p528
aS'0_0'
p529
aS'0_0'
p530
aS'0_0'
p531
aS'0_0'
p532
aS'0_0'
p533
aS'0_0'
p534
aS'0_0'
p535
aS'0_0'
p536
aa(lp537
S'1'
aS'1'
aS'1'
aS'1'
aS'1'
aS'1'
aS'1'
aS'1'
aS'1'
aS'1'
aS'2'
aS'0_0'
p538
aS'0_0'
p539
aS'0_0'
p540
aS'0_0'
p541
aS'0_0'
p542
aS'0_0'
p543
aS'0_0'
p544
aS'0_0'
p545
aS'0_0'
p546
aa(lp547
S'1'
aS'1'
aS'1'
aS'1'
aS'1'
aS'1'
aS'1'
aS'1'
aS'1'
aS'1'
aS'2'
aS'0_0'
p548
aS'0_0'
p549
aS'0_0'
p550
aS'X'
aS'X'
aS'X'
aS'X'
aS'X'
aS'3_0'
p551
aa(lp552
S'1'
aS'1'
aS'1'
aS'1'
aS'1'
aS'1'
aS'1'
aS'1'
aS'1'
aS'2'
aS'2'
aS'0_0'
p553
aS'X'
aS'X'
aS'X'
aS'X'
aS'X'
aS'X'
aS'X'
aS'3_0'
p554
aa(lp555
S'1'
aS'1'
aS'1'
aS'1'
aS'1'
aS'1'
aS'1'
aS'1'
aS'1'
aS'2'
aS'0_0'
p556
aS'3_0'
p557
aS'3_0'
p558
aS'3_0'
p559
aS'3_0'
p560
aS'3_0'
p561
aS'3_0'
p562
aS'3_0'
p563
aS'3_0'
p564
aS'3_0'
p565
aasI5
(lp566
(lp567
S'@'
aS'@'
aS'@'
aS'@'
aS'@'
aS'@'
aS'@'
aS'@'
aS'0_3'
p568
aS'0_2'
p569
aS'0_2'
p570
aS'X'
aS'X'
aS'X'
aS'X'
aS'X'
aS'X'
aS'X'
aS'X'
aS'3_0'
p571
aa(lp572
S'@'
aS'@'
aS'@'
aS'@'
aS'@'
aS'@'
aS'@'
aS'@'
aS'@'
aS'0_1'
p573
aS'0_0'
p574
aS'X'
aS'X'
aS'X'
aS'X'
aS'X'
aS'X'
aS'X'
aS'X'
aS'3_0'
p575
aa(lp576
S'@'
aS'@'
aS'@'
aS'@'
aS'@'
aS'@'
aS'@'
aS'@'
aS'@'
aS'@'
aS'0_1'
p577
aS'0_0'
p578
aS'X'
aS'X'
aS'X'
aS'X'
aS'X'
aS'X'
aS'X'
aS'3_0'
p579
aa(lp580
S'@'
aS'@'
aS'@'
aS'@'
aS'@'
aS'@'
aS'@'
aS'@'
aS'@'
aS'@'
aS'@'
aS'0_1'
p581
aS'X'
aS'X'
aS'X'
aS'X'
aS'X'
aS'X'
aS'X'
aS'3_0'
p582
aa(lp583
S'@'
aS'@'
aS'@'
aS'@'
aS'@'
aS'@'
aS'@'
aS'@'
aS'@'
aS'@'
aS'@'
aS'0_1'
p584
aS'0_0'
p585
aS'X'
aS'X'
aS'X'
aS'X'
aS'X'
aS'X'
aS'3_0'
p586
aa(lp587
S'@'
aS'@'
aS'@'
aS'@'
aS'@'
aS'@'
aS'@'
aS'@'
aS'@'
aS'@'
aS'@'
aS'@'
aS'0_1'
p588
aS'0_0'
p589
aS'X'
aS'X'
aS'X'
aS'X'
aS'X'
aS'3_0'
p590
aa(lp591
S'@'
aS'@'
aS'@'
aS'@'
aS'@'
aS'@'
aS'@'
aS'@'
aS'@'
aS'@'
aS'@'
aS'@'
aS'@'
aS'0_1'
p592
aS'0_0'
p593
aS'0_0'
p594
aS'0_0'
p595
aS'X'
aS'X'
aS'3_0'
p596
aa(lp597
S'@'
aS'@'
aS'@'
aS'@'
aS'@'
aS'@'
aS'@'
aS'@'
aS'@'
aS'@'
aS'@'
aS'@'
aS'@'
aS'@'
aS'0_1'
p598
aS'0_0'
p599
aS'0_0'
p600
aS'0_0'
p601
aS'0_0'
p602
aS'3_0'
p603
aa(lp604
S'@'
aS'@'
aS'@'
aS'@'
aS'@'
aS'@'
aS'@'
aS'@'
aS'@'
aS'@'
aS'@'
aS'@'
aS'@'
aS'@'
aS'@'
aS'@'
aS'@'
aS'0_1'
p605
aS'0_0'
p606
aS'0_0'
p607
aa(lp608
S'@'
aS'@'
aS'@'
aS'@'
aS'@'
aS'@'
aS'@'
aS'@'
aS'@'
aS'@'
aS'@'
aS'@'
aS'@'
aS'@'
aS'@'
aS'@'
aS'@'
aS'@'
aS'0_1'
p609
aS'0_0'
p610
aa(lp611
S'@'
aS'@'
aS'@'
aS'@'
aS'@'
aS'@'
aS'@'
aS'@'
aS'@'
aS'@'
aS'@'
aS'@'
aS'@'
aS'@'
aS'@'
aS'@'
aS'@'
aS'@'
aS'@'
aS'0_1'
p612
aa(lp613
S'@'
aS'@'
aS'@'
aS'@'
aS'@'
aS'@'
aS'@'
aS'@'
aS'@'
aS'@'
aS'@'
aS'@'
aS'@'
aS'@'
aS'@'
aS'@'
aS'@'
aS'@'
aS'@'
aS'0_1'
p614
aa(lp615
S'@'
aS'@'
aS'@'
aS'@'
aS'@'
aS'@'
aS'@'
aS'@'
aS'@'
aS'@'
aS'@'
aS'@'
aS'@'
aS'@'
aS'@'
aS'@'
aS'@'
aS'@'
aS'@'
aS'@'
aa(lp616
S'@'
aS'@'
aS'@'
aS'@'
aS'@'
aS'@'
aS'@'
aS'@'
aS'@'
aS'@'
aS'@'
aS'@'
aS'@'
aS'@'
aS'@'
aS'@'
aS'@'
aS'@'
aS'@'
aS'@'
aa(lp617
S'@'
aS'@'
aS'@'
aS'@'
aS'@'
aS'@'
aS'@'
aS'@'
aS'@'
aS'@'
aS'@'
aS'@'
aS'@'
aS'@'
aS'@'
aS'@'
aS'@'
aS'@'
aS'@'
aS'@'
aa(lp618
S'@'
aS'@'
aS'@'
aS'@'
aS'@'
aS'@'
aS'@'
aS'@'
aS'@'
aS'@'
aS'@'
aS'@'
aS'@'
aS'@'
aS'@'
aS'@'
aS'@'
aS'@'
aS'@'
aS'@'
aa(lp619
S'@'
aS'@'
aS'@'
aS'@'
aS'@'
aS'@'
aS'@'
aS'@'
aS'@'
aS'@'
aS'@'
aS'@'
aS'@'
aS'@'
aS'@'
aS'@'
aS'@'
aS'@'
aS'@'
aS'@'
aa(lp620
S'@'
aS'@'
aS'@'
aS'@'
aS'@'
aS'@'
aS'@'
aS'@'
aS'@'
aS'@'
aS'@'
aS'@'
aS'@'
aS'@'
aS'0_3'
p621
aS'0_2'
p622
aS'0_2'
p623
aS'0_2'
p624
aS'0_2'
p625
aS'0_2'
p626
aa(lp627
S'@'
aS'@'
aS'@'
aS'@'
aS'@'
aS'@'
aS'@'
aS'@'
aS'@'
aS'@'
aS'@'
aS'@'
aS'0_3'
p628
aS'0_2'
p629
aS'0_0'
p630
aS'0_0'
p631
aS'0_0'
p632
aS'0_0'
p633
aS'0_0'
p634
aS'0_0'
p635
aa(lp636
S'@'
aS'@'
aS'@'
aS'@'
aS'@'
aS'@'
aS'@'
aS'@'
aS'@'
aS'@'
aS'@'
aS'0_3'
p637
aS'0_0'
p638
aS'3_0'
p639
aS'3_0'
p640
aS'3_0'
p641
aS'3_0'
p642
aS'3_0'
p643
aS'3_0'
p644
aS'3_0'
p645
aasI6
(lp646
(lp647
S'@'
aS'@'
aS'@'
aS'@'
aS'@'
aS'@'
aS'@'
aS'@'
aS'@'
aS'@'
aS'@'
aS'0_3'
p648
aS'0_2'
p649
aS'X'
aS'X'
aS'X'
aS'X'
aS'X'
aS'X'
aS'3_0'
p650
aa(lp651
S'@'
aS'@'
aS'@'
aS'@'
aS'@'
aS'@'
aS'@'
aS'@'
aS'@'
aS'@'
aS'@'
aS'0_1'
p652
aS'0_0'
p653
aS'X'
aS'X'
aS'X'
aS'X'
aS'X'
aS'X'
aS'3_0'
p654
aa(lp655
S'@'
aS'@'
aS'@'
aS'@'
aS'@'
aS'@'
aS'@'
aS'@'
aS'@'
aS'@'
aS'@'
aS'@'
aS'0_1'
p656
aS'0_0'
p657
aS'X'
aS'X'
aS'X'
aS'X'
aS'X'
aS'3_0'
p658
aa(lp659
S'@'
aS'@'
aS'@'
aS'@'
aS'@'
aS'@'
aS'@'
aS'@'
aS'@'
aS'@'
aS'@'
aS'@'
aS'0_1'
p660
aS'0_0'
p661
aS'0_0'
p662
aS'X'
aS'X'
aS'X'
aS'X'
aS'3_0'
p663
aa(lp664
S'@'
aS'@'
aS'@'
aS'@'
aS'@'
aS'@'
aS'@'
aS'@'
aS'@'
aS'@'
aS'@'
aS'@'
aS'@'
aS'0_1'
p665
aS'0_0'
p666
aS'0_0'
p667
aS'0_0'
p668
aS'X'
aS'X'
aS'3_0'
p669
aa(lp670
S'@'
aS'@'
aS'@'
aS'@'
aS'@'
aS'@'
aS'@'
aS'@'
aS'@'
aS'@'
aS'@'
aS'@'
aS'@'
aS'@'
aS'0_1'
p671
aS'0_0'
p672
aS'0_0'
p673
aS'0_0'
p674
aS'X'
aS'3_0'
p675
aa(lp676
S'@'
aS'@'
aS'@'
aS'@'
aS'@'
aS'@'
aS'@'
aS'@'
aS'@'
aS'@'
aS'@'
aS'@'
aS'@'
aS'@'
aS'@'
aS'@'
aS'@'
aS'0_1'
p677
aS'0_0'
p678
aS'3_0'
p679
aa(lp680
S'@'
aS'@'
aS'@'
aS'@'
aS'@'
aS'@'
aS'@'
aS'@'
aS'@'
aS'@'
aS'@'
aS'@'
aS'@'
aS'@'
aS'@'
aS'@'
aS'@'
aS'@'
aS'@'
aS'0_1'
p681
aa(lp682
S'@'
aS'@'
aS'@'
aS'@'
aS'@'
aS'@'
aS'@'
aS'@'
aS'@'
aS'@'
aS'@'
aS'@'
aS'@'
aS'@'
aS'@'
aS'@'
aS'@'
aS'@'
aS'@'
aS'@'
aa(lp683
S'@'
aS'@'
aS'@'
aS'@'
aS'@'
aS'@'
aS'@'
aS'@'
aS'@'
aS'@'
aS'@'
aS'@'
aS'@'
aS'@'
aS'@'
aS'@'
aS'@'
aS'@'
aS'@'
aS'@'
aa(lp684
S'@'
aS'@'
aS'@'
aS'@'
aS'@'
aS'@'
aS'@'
aS'@'
aS'@'
aS'@'
aS'@'
aS'@'
aS'@'
aS'@'
aS'@'
aS'@'
aS'@'
aS'@'
aS'@'
aS'@'
aa(lp685
S'@'
aS'@'
aS'@'
aS'@'
aS'@'
aS'@'
aS'@'
aS'@'
aS'@'
aS'@'
aS'@'
aS'@'
aS'@'
aS'@'
aS'@'
aS'@'
aS'@'
aS'@'
aS'@'
aS'@'
aa(lp686
S'@'
aS'@'
aS'@'
aS'@'
aS'@'
aS'@'
aS'@'
aS'@'
aS'@'
aS'@'
aS'@'
aS'@'
aS'@'
aS'@'
aS'@'
aS'@'
aS'@'
aS'@'
aS'@'
aS'@'
aa(lp687
S'@'
aS'@'
aS'@'
aS'@'
aS'@'
aS'@'
aS'@'
aS'@'
aS'@'
aS'@'
aS'@'
aS'@'
aS'@'
aS'@'
aS'@'
aS'@'
aS'@'
aS'@'
aS'@'
aS'@'
aa(lp688
S'@'
aS'@'
aS'@'
aS'@'
aS'@'
aS'@'
aS'@'
aS'@'
aS'@'
aS'@'
aS'@'
aS'@'
aS'@'
aS'@'
aS'@'
aS'@'
aS'@'
aS'@'
aS'@'
aS'@'
aa(lp689
S'@'
aS'@'
aS'@'
aS'@'
aS'@'
aS'@'
aS'@'
aS'@'
aS'@'
aS'@'
aS'@'
aS'@'
aS'@'
aS'@'
aS'@'
aS'@'
aS'@'
aS'@'
aS'@'
aS'@'
aa(lp690
S'@'
aS'@'
aS'@'
aS'@'
aS'@'
aS'@'
aS'@'
aS'@'
aS'@'
aS'@'
aS'@'
aS'@'
aS'@'
aS'@'
aS'@'
aS'@'
aS'@'
aS'@'
aS'@'
aS'@'
aa(lp691
S'@'
aS'@'
aS'@'
aS'@'
aS'@'
aS'@'
aS'@'
aS'@'
aS'@'
aS'@'
aS'@'
aS'@'
aS'@'
aS'@'
aS'@'
aS'@'
aS'@'
aS'@'
aS'@'
aS'@'
aa(lp692
S'@'
aS'@'
aS'@'
aS'@'
aS'@'
aS'@'
aS'@'
aS'@'
aS'@'
aS'@'
aS'@'
aS'@'
aS'@'
aS'@'
aS'@'
aS'@'
aS'@'
aS'@'
aS'@'
aS'@'
aa(lp693
S'@'
aS'@'
aS'@'
aS'@'
aS'@'
aS'@'
aS'@'
aS'@'
aS'@'
aS'@'
aS'@'
aS'@'
aS'@'
aS'0_3'
p694
aS'0_2'
p695
aS'0_2'
p696
aS'0_2'
p697
aS'0_2'
p698
aS'0_2'
p699
aS'0_2'
p700
aasI7
(lp701
(lp702
S'@'
aS'@'
aS'@'
aS'@'
aS'@'
aS'@'
aS'@'
aS'@'
aS'@'
aS'@'
aS'@'
aS'@'
aS'@'
aS'0_3'
p703
aS'0_2'
p704
aS'0_2'
p705
aS'0_2'
p706
aS'X'
aS'X'
aS'3_2'
p707
aa(lp708
S'@'
aS'@'
aS'@'
aS'@'
aS'@'
aS'@'
aS'@'
aS'@'
aS'@'
aS'@'
aS'@'
aS'@'
aS'@'
aS'0_1'
p709
aS'0_0'
p710
aS'0_0'
p711
aS'0_0'
p712
aS'0_0'
p713
aS'X'
aS'3_0'
p714
aa(lp715
S'@'
aS'@'
aS'@'
aS'@'
aS'@'
aS'@'
aS'@'
aS'@'
aS'@'
aS'@'
aS'@'
aS'@'
aS'@'
aS'@'
aS'0_1'
p716
aS'0_0'
p717
aS'0_0'
p718
aS'0_0'
p719
aS'X'
aS'3_0'
p720
aa(lp721
S'@'
aS'@'
aS'@'
aS'@'
aS'@'
aS'@'
aS'@'
aS'@'
aS'@'
aS'@'
aS'@'
aS'@'
aS'@'
aS'@'
aS'@'
aS'0_1'
p722
aS'0_0'
p723
aS'0_0'
p724
aS'0_0'
p725
aS'3_0'
p726
aa(lp727
S'@'
aS'@'
aS'@'
aS'@'
aS'@'
aS'@'
aS'@'
aS'@'
aS'@'
aS'@'
aS'@'
aS'@'
aS'@'
aS'@'
aS'@'
aS'@'
aS'@'
aS'0_1'
p728
aS'0_0'
p729
aS'3_0'
p730
aa(lp731
S'@'
aS'@'
aS'@'
aS'@'
aS'@'
aS'@'
aS'@'
aS'@'
aS'@'
aS'@'
aS'@'
aS'@'
aS'@'
aS'@'
aS'@'
aS'@'
aS'@'
aS'@'
aS'0_1'
p732
aS'0_0'
p733
aa(lp734
S'@'
aS'@'
aS'@'
aS'@'
aS'@'
aS'@'
aS'@'
aS'@'
aS'@'
aS'@'
aS'@'
aS'@'
aS'@'
aS'@'
aS'@'
aS'@'
aS'@'
aS'@'
aS'@'
aS'0_1'
p735
aa(lp736
S'@'
aS'@'
aS'@'
aS'@'
aS'@'
aS'@'
aS'@'
aS'@'
aS'@'
aS'@'
aS'@'
aS'@'
aS'@'
aS'@'
aS'@'
aS'@'
aS'@'
aS'@'
aS'@'
aS'@'
aa(lp737
S'@'
aS'@'
aS'@'
aS'@'
aS'@'
aS'@'
aS'@'
aS'@'
aS'@'
aS'@'
aS'@'
aS'@'
aS'@'
aS'@'
aS'@'
aS'@'
aS'@'
aS'@'
aS'@'
aS'@'
aa(lp738
S'@'
aS'@'
aS'@'
aS'@'
aS'@'
aS'@'
aS'@'
aS'@'
aS'@'
aS'@'
aS'@'
aS'@'
aS'@'
aS'@'
aS'@'
aS'@'
aS'@'
aS'@'
aS'@'
aS'@'
aa(lp739
S'@'
aS'@'
aS'@'
aS'@'
aS'@'
aS'@'
aS'@'
aS'@'
aS'@'
aS'@'
aS'@'
aS'@'
aS'@'
aS'@'
aS'@'
aS'@'
aS'@'
aS'@'
aS'@'
aS'@'
aa(lp740
S'@'
aS'@'
aS'@'
aS'@'
aS'@'
aS'@'
aS'@'
aS'@'
aS'@'
aS'@'
aS'@'
aS'@'
aS'@'
aS'@'
aS'@'
aS'@'
aS'@'
aS'@'
aS'@'
aS'@'
aa(lp741
S'@'
aS'@'
aS'@'
aS'@'
aS'@'
aS'@'
aS'@'
aS'@'
aS'@'
aS'@'
aS'@'
aS'@'
aS'@'
aS'@'
aS'@'
aS'@'
aS'@'
aS'@'
aS'@'
aS'@'
aa(lp742
S'@'
aS'@'
aS'@'
aS'@'
aS'@'
aS'@'
aS'@'
aS'@'
aS'@'
aS'@'
aS'@'
aS'@'
aS'@'
aS'@'
aS'@'
aS'@'
aS'@'
aS'@'
aS'@'
aS'@'
aa(lp743
S'@'
aS'@'
aS'@'
aS'@'
aS'@'
aS'@'
aS'@'
aS'@'
aS'@'
aS'@'
aS'@'
aS'@'
aS'@'
aS'@'
aS'@'
aS'@'
aS'@'
aS'@'
aS'@'
aS'@'
aa(lp744
S'@'
aS'@'
aS'@'
aS'@'
aS'@'
aS'@'
aS'@'
aS'@'
aS'@'
aS'@'
aS'@'
aS'@'
aS'@'
aS'@'
aS'@'
aS'@'
aS'@'
aS'@'
aS'@'
aS'@'
aa(lp745
S'@'
aS'@'
aS'@'
aS'@'
aS'@'
aS'@'
aS'@'
aS'@'
aS'@'
aS'@'
aS'@'
aS'@'
aS'@'
aS'@'
aS'@'
aS'@'
aS'@'
aS'@'
aS'@'
aS'@'
aa(lp746
S'@'
aS'@'
aS'@'
aS'@'
aS'@'
aS'@'
aS'@'
aS'@'
aS'@'
aS'@'
aS'@'
aS'@'
aS'@'
aS'@'
aS'@'
aS'@'
aS'@'
aS'@'
aS'@'
aS'@'
aa(lp747
S'@'
aS'@'
aS'@'
aS'@'
aS'@'
aS'@'
aS'@'
aS'@'
aS'@'
aS'@'
aS'@'
aS'@'
aS'@'
aS'@'
aS'@'
aS'@'
aS'@'
aS'@'
aS'@'
aS'@'
aa(lp748
S'@'
aS'@'
aS'@'
aS'@'
aS'@'
aS'@'
aS'@'
aS'@'
aS'@'
aS'@'
aS'@'
aS'@'
aS'@'
aS'@'
aS'@'
aS'@'
aS'@'
aS'@'
aS'@'
aS'@'
aasI8
(lp749
(lp750
S'@'
aS'@'
aS'@'
aS'@'
aS'@'
aS'@'
aS'@'
aS'@'
aS'@'
aS'@'
aS'@'
aS'@'
aS'@'
aS'@'
aS'@'
aS'@'
aS'@'
aS'0_3'
p751
aS'0_2'
p752
aS'3_2'
p753
aa(lp754
S'@'
aS'@'
aS'@'
aS'@'
aS'@'
aS'@'
aS'@'
aS'@'
aS'@'
aS'@'
aS'@'
aS'@'
aS'@'
aS'@'
aS'@'
aS'@'
aS'@'
aS'@'
aS'0_1'
p755
aS'0_0'
p756
aa(lp757
S'@'
aS'@'
aS'@'
aS'@'
aS'@'
aS'@'
aS'@'
aS'@'
aS'@'
aS'@'
aS'@'
aS'@'
aS'@'
aS'@'
aS'@'
aS'@'
aS'@'
aS'@'
aS'0_1'
p758
aS'0_0'
p759
aa(lp760
S'@'
aS'@'
aS'@'
aS'@'
aS'@'
aS'@'
aS'@'
aS'@'
aS'@'
aS'@'
aS'@'
aS'@'
aS'@'
aS'@'
aS'@'
aS'@'
aS'@'
aS'@'
aS'@'
aS'0_1'
p761
aa(lp762
S'@'
aS'@'
aS'@'
aS'@'
aS'@'
aS'@'
aS'@'
aS'@'
aS'@'
aS'@'
aS'@'
aS'@'
aS'@'
aS'@'
aS'@'
aS'@'
aS'@'
aS'@'
aS'@'
aS'0_1'
p763
aa(lp764
S'@'
aS'@'
aS'@'
aS'@'
aS'@'
aS'@'
aS'@'
aS'@'
aS'@'
aS'@'
aS'@'
aS'@'
aS'@'
aS'@'
aS'@'
aS'@'
aS'@'
aS'@'
aS'@'
aS'@'
aa(lp765
S'@'
aS'@'
aS'@'
aS'@'
aS'@'
aS'@'
aS'@'
aS'@'
aS'@'
aS'@'
aS'@'
aS'@'
aS'@'
aS'@'
aS'@'
aS'@'
aS'@'
aS'@'
aS'@'
aS'@'
aa(lp766
S'@'
aS'@'
aS'@'
aS'@'
aS'@'
aS'@'
aS'@'
aS'@'
aS'@'
aS'@'
aS'@'
aS'@'
aS'@'
aS'@'
aS'@'
aS'@'
aS'@'
aS'@'
aS'@'
aS'@'
aa(lp767
S'@'
aS'@'
aS'@'
aS'@'
aS'@'
aS'@'
aS'@'
aS'@'
aS'@'
aS'@'
aS'@'
aS'@'
aS'@'
aS'@'
aS'@'
aS'@'
aS'@'
aS'@'
aS'@'
aS'@'
aa(lp768
S'@'
aS'@'
aS'@'
aS'@'
aS'@'
aS'@'
aS'@'
aS'@'
aS'@'
aS'@'
aS'@'
aS'@'
aS'@'
aS'@'
aS'@'
aS'@'
aS'@'
aS'@'
aS'@'
aS'@'
aa(lp769
S'@'
aS'@'
aS'@'
aS'@'
aS'@'
aS'@'
aS'@'
aS'@'
aS'@'
aS'@'
aS'@'
aS'@'
aS'@'
aS'@'
aS'@'
aS'@'
aS'@'
aS'@'
aS'@'
aS'@'
aa(lp770
S'@'
aS'@'
aS'@'
aS'@'
aS'@'
aS'@'
aS'@'
aS'@'
aS'@'
aS'@'
aS'@'
aS'@'
aS'@'
aS'@'
aS'@'
aS'@'
aS'@'
aS'@'
aS'@'
aS'@'
aa(lp771
S'@'
aS'@'
aS'@'
aS'@'
aS'@'
aS'@'
aS'@'
aS'@'
aS'@'
aS'@'
aS'@'
aS'@'
aS'@'
aS'@'
aS'@'
aS'@'
aS'@'
aS'@'
aS'@'
aS'@'
aa(lp772
S'@'
aS'@'
aS'@'
aS'@'
aS'@'
aS'@'
aS'@'
aS'@'
aS'@'
aS'@'
aS'@'
aS'@'
aS'@'
aS'@'
aS'@'
aS'@'
aS'@'
aS'@'
aS'@'
aS'@'
aa(lp773
S'@'
aS'@'
aS'@'
aS'@'
aS'@'
aS'@'
aS'@'
aS'@'
aS'@'
aS'@'
aS'@'
aS'@'
aS'@'
aS'@'
aS'@'
aS'@'
aS'@'
aS'@'
aS'@'
aS'@'
aa(lp774
S'@'
aS'@'
aS'@'
aS'@'
aS'@'
aS'@'
aS'@'
aS'@'
aS'@'
aS'@'
aS'@'
aS'@'
aS'@'
aS'@'
aS'@'
aS'@'
aS'@'
aS'@'
aS'@'
aS'@'
aa(lp775
S'@'
aS'@'
aS'@'
aS'@'
aS'@'
aS'@'
aS'@'
aS'@'
aS'@'
aS'@'
aS'@'
aS'@'
aS'@'
aS'@'
aS'@'
aS'@'
aS'@'
aS'@'
aS'@'
aS'@'
aa(lp776
S'@'
aS'@'
aS'@'
aS'@'
aS'@'
aS'@'
aS'@'
aS'@'
aS'@'
aS'@'
aS'@'
aS'@'
aS'@'
aS'@'
aS'@'
aS'@'
aS'@'
aS'@'
aS'@'
aS'@'
aa(lp777
S'@'
aS'@'
aS'@'
aS'@'
aS'@'
aS'@'
aS'@'
aS'@'
aS'@'
aS'@'
aS'@'
aS'@'
aS'@'
aS'@'
aS'@'
aS'@'
aS'@'
aS'@'
aS'@'
aS'@'
aa(lp778
S'@'
aS'@'
aS'@'
aS'@'
aS'@'
aS'@'
aS'@'
aS'@'
aS'@'
aS'@'
aS'@'
aS'@'
aS'@'
aS'@'
aS'@'
aS'@'
aS'@'
aS'@'
aS'@'
aS'@'
aasI9
(lp779
(lp780
S'@'
aS'@'
aS'@'
aS'@'
aS'@'
aS'@'
aS'@'
aS'@'
aS'@'
aS'@'
aS'@'
aS'@'
aS'@'
aS'@'
aS'@'
aS'@'
aS'@'
aS'@'
aS'@'
aS'0_3'
p781
aa(lp782
S'@'
aS'@'
aS'@'
aS'@'
aS'@'
aS'@'
aS'@'
aS'@'
aS'@'
aS'@'
aS'@'
aS'@'
aS'@'
aS'@'
aS'@'
aS'@'
aS'@'
aS'@'
aS'@'
aS'@'
aa(lp783
S'@'
aS'@'
aS'@'
aS'@'
aS'@'
aS'@'
aS'@'
aS'@'
aS'@'
aS'@'
aS'@'
aS'@'
aS'@'
aS'@'
aS'@'
aS'@'
aS'@'
aS'@'
aS'@'
aS'@'
aa(lp784
S'@'
aS'@'
aS'@'
aS'@'
aS'@'
aS'@'
aS'@'
aS'@'
aS'@'
aS'@'
aS'@'
aS'@'
aS'@'
aS'@'
aS'@'
aS'@'
aS'@'
aS'@'
aS'@'
aS'@'
aa(lp785
S'@'
aS'@'
aS'@'
aS'@'
aS'@'
aS'@'
aS'@'
aS'@'
aS'@'
aS'@'
aS'@'
aS'@'
aS'@'
aS'@'
aS'@'
aS'@'
aS'@'
aS'@'
aS'@'
aS'@'
aa(lp786
S'@'
aS'@'
aS'@'
aS'@'
aS'@'
aS'@'
aS'@'
aS'@'
aS'@'
aS'@'
aS'@'
aS'@'
aS'@'
aS'@'
aS'@'
aS'@'
aS'@'
aS'@'
aS'@'
aS'@'
aa(lp787
S'@'
aS'@'
aS'@'
aS'@'
aS'@'
aS'@'
aS'@'
aS'@'
aS'@'
aS'@'
aS'@'
aS'@'
aS'@'
aS'@'
aS'@'
aS'@'
aS'@'
aS'@'
aS'@'
aS'@'
aa(lp788
S'@'
aS'@'
aS'@'
aS'@'
aS'@'
aS'@'
aS'@'
aS'@'
aS'@'
aS'@'
aS'@'
aS'@'
aS'@'
aS'@'
aS'@'
aS'@'
aS'@'
aS'@'
aS'@'
aS'@'
aa(lp789
S'@'
aS'@'
aS'@'
aS'@'
aS'@'
aS'@'
aS'@'
aS'@'
aS'@'
aS'@'
aS'@'
aS'@'
aS'@'
aS'@'
aS'@'
aS'@'
aS'@'
aS'@'
aS'@'
aS'@'
aa(lp790
S'@'
aS'@'
aS'@'
aS'@'
aS'@'
aS'@'
aS'@'
aS'@'
aS'@'
aS'@'
aS'@'
aS'@'
aS'@'
aS'@'
aS'@'
aS'@'
aS'@'
aS'@'
aS'@'
aS'@'
aa(lp791
S'@'
aS'@'
aS'@'
aS'@'
aS'@'
aS'@'
aS'@'
aS'@'
aS'@'
aS'@'
aS'@'
aS'@'
aS'@'
aS'@'
aS'@'
aS'@'
aS'@'
aS'@'
aS'@'
aS'@'
aa(lp792
S'@'
aS'@'
aS'@'
aS'@'
aS'@'
aS'@'
aS'@'
aS'@'
aS'@'
aS'@'
aS'@'
aS'@'
aS'@'
aS'@'
aS'@'
aS'@'
aS'@'
aS'@'
aS'@'
aS'@'
aa(lp793
S'@'
aS'@'
aS'@'
aS'@'
aS'@'
aS'@'
aS'@'
aS'@'
aS'@'
aS'@'
aS'@'
aS'@'
aS'@'
aS'@'
aS'@'
aS'@'
aS'@'
aS'@'
aS'@'
aS'@'
aa(lp794
S'@'
aS'@'
aS'@'
aS'@'
aS'@'
aS'@'
aS'@'
aS'@'
aS'@'
aS'@'
aS'@'
aS'@'
aS'@'
aS'@'
aS'@'
aS'@'
aS'@'
aS'@'
aS'@'
aS'@'
aa(lp795
S'@'
aS'@'
aS'@'
aS'@'
aS'@'
aS'@'
aS'@'
aS'@'
aS'@'
aS'@'
aS'@'
aS'@'
aS'@'
aS'@'
aS'@'
aS'@'
aS'@'
aS'@'
aS'@'
aS'@'
aa(lp796
S'@'
aS'@'
aS'@'
aS'@'
aS'@'
aS'@'
aS'@'
aS'@'
aS'@'
aS'@'
aS'@'
aS'@'
aS'@'
aS'@'
aS'@'
aS'@'
aS'@'
aS'@'
aS'@'
aS'@'
aa(lp797
S'@'
aS'@'
aS'@'
aS'@'
aS'@'
aS'@'
aS'@'
aS'@'
aS'@'
aS'@'
aS'@'
aS'@'
aS'@'
aS'@'
aS'@'
aS'@'
aS'@'
aS'@'
aS'@'
aS'@'
aa(lp798
S'@'
aS'@'
aS'@'
aS'@'
aS'@'
aS'@'
aS'@'
aS'@'
aS'@'
aS'@'
aS'@'
aS'@'
aS'@'
aS'@'
aS'@'
aS'@'
aS'@'
aS'@'
aS'@'
aS'@'
aa(lp799
S'@'
aS'@'
aS'@'
aS'@'
aS'@'
aS'@'
aS'@'
aS'@'
aS'@'
aS'@'
aS'@'
aS'@'
aS'@'
aS'@'
aS'@'
aS'@'
aS'@'
aS'@'
aS'@'
aS'@'
aa(lp800
S'@'
aS'@'
aS'@'
aS'@'
aS'@'
aS'@'
aS'@'
aS'@'
aS'@'
aS'@'
aS'@'
aS'@'
aS'@'
aS'@'
aS'@'
aS'@'
aS'@'
aS'@'
aS'@'
aS'@'
aasI10
(lp801
(lp802
S'@'
aS'@'
aS'@'
aS'@'
aS'@'
aS'@'
aS'@'
aS'@'
aS'@'
aS'@'
aS'@'
aS'@'
aS'@'
aS'@'
aS'@'
aS'@'
aS'@'
aS'@'
aS'@'
aS'@'
aa(lp803
S'@'
aS'@'
aS'@'
aS'@'
aS'@'
aS'@'
aS'@'
aS'@'
aS'@'
aS'@'
aS'@'
aS'@'
aS'@'
aS'@'
aS'@'
aS'@'
aS'@'
aS'@'
aS'@'
aS'@'
aa(lp804
S'@'
aS'@'
aS'@'
aS'@'
aS'@'
aS'@'
aS'@'
aS'@'
aS'@'
aS'@'
aS'@'
aS'@'
aS'@'
aS'@'
aS'@'
aS'@'
aS'@'
aS'@'
aS'@'
aS'@'
aa(lp805
S'@'
aS'@'
aS'@'
aS'@'
aS'@'
aS'@'
aS'@'
aS'@'
aS'@'
aS'@'
aS'@'
aS'@'
aS'@'
aS'@'
aS'@'
aS'@'
aS'@'
aS'@'
aS'@'
aS'@'
aa(lp806
S'@'
aS'@'
aS'@'
aS'@'
aS'@'
aS'@'
aS'@'
aS'@'
aS'@'
aS'@'
aS'@'
aS'@'
aS'@'
aS'@'
aS'@'
aS'@'
aS'@'
aS'@'
aS'@'
aS'@'
aa(lp807
S'@'
aS'@'
aS'@'
aS'@'
aS'@'
aS'@'
aS'@'
aS'@'
aS'@'
aS'@'
aS'@'
aS'@'
aS'@'
aS'@'
aS'@'
aS'@'
aS'@'
aS'@'
aS'@'
aS'@'
aa(lp808
S'@'
aS'@'
aS'@'
aS'@'
aS'@'
aS'@'
aS'@'
aS'@'
aS'@'
aS'@'
aS'@'
aS'@'
aS'@'
aS'@'
aS'@'
aS'@'
aS'@'
aS'@'
aS'@'
aS'@'
aa(lp809
S'@'
aS'@'
aS'@'
aS'@'
aS'@'
aS'@'
aS'@'
aS'@'
aS'@'
aS'@'
aS'@'
aS'@'
aS'@'
aS'@'
aS'@'
aS'@'
aS'@'
aS'@'
aS'@'
aS'@'
aa(lp810
S'@'
aS'@'
aS'@'
aS'@'
aS'@'
aS'@'
aS'@'
aS'@'
aS'@'
aS'@'
aS'@'
aS'@'
aS'@'
aS'@'
aS'@'
aS'@'
aS'@'
aS'@'
aS'@'
aS'@'
aa(lp811
S'@'
aS'@'
aS'@'
aS'@'
aS'@'
aS'@'
aS'@'
aS'@'
aS'@'
aS'@'
aS'@'
aS'@'
aS'@'
aS'@'
aS'@'
aS'@'
aS'@'
aS'@'
aS'@'
aS'@'
aa(lp812
S'@'
aS'@'
aS'@'
aS'@'
aS'@'
aS'@'
aS'@'
aS'@'
aS'@'
aS'@'
aS'@'
aS'@'
aS'@'
aS'@'
aS'@'
aS'@'
aS'@'
aS'@'
aS'@'
aS'@'
aa(lp813
S'@'
aS'@'
aS'@'
aS'@'
aS'@'
aS'@'
aS'@'
aS'@'
aS'@'
aS'@'
aS'@'
aS'@'
aS'@'
aS'@'
aS'@'
aS'@'
aS'@'
aS'@'
aS'@'
aS'@'
aa(lp814
S'@'
aS'@'
aS'@'
aS'@'
aS'@'
aS'@'
aS'@'
aS'@'
aS'@'
aS'@'
aS'@'
aS'@'
aS'@'
aS'@'
aS'@'
aS'@'
aS'@'
aS'@'
aS'@'
aS'@'
aa(lp815
S'@'
aS'@'
aS'@'
aS'@'
aS'@'
aS'@'
aS'@'
aS'@'
aS'@'
aS'@'
aS'@'
aS'@'
aS'@'
aS'@'
aS'@'
aS'@'
aS'@'
aS'@'
aS'@'
aS'@'
aa(lp816
S'@'
aS'@'
aS'@'
aS'@'
aS'@'
aS'@'
aS'@'
aS'@'
aS'@'
aS'@'
aS'@'
aS'@'
aS'@'
aS'@'
aS'@'
aS'@'
aS'@'
aS'@'
aS'@'
aS'@'
aa(lp817
S'@'
aS'@'
aS'@'
aS'@'
aS'@'
aS'@'
aS'@'
aS'@'
aS'@'
aS'@'
aS'@'
aS'@'
aS'@'
aS'@'
aS'@'
aS'@'
aS'@'
aS'@'
aS'@'
aS'@'
aa(lp818
S'@'
aS'@'
aS'@'
aS'@'
aS'@'
aS'@'
aS'@'
aS'@'
aS'@'
aS'@'
aS'@'
aS'@'
aS'@'
aS'@'
aS'@'
aS'@'
aS'@'
aS'@'
aS'@'
aS'@'
aa(lp819
S'@'
aS'@'
aS'@'
aS'@'
aS'@'
aS'@'
aS'@'
aS'@'
aS'@'
aS'@'
aS'@'
aS'@'
aS'@'
aS'@'
aS'@'
aS'@'
aS'@'
aS'@'
aS'@'
aS'@'
aa(lp820
S'@'
aS'@'
aS'@'
aS'@'
aS'@'
aS'@'
aS'@'
aS'@'
aS'@'
aS'@'
aS'@'
aS'@'
aS'@'
aS'@'
aS'@'
aS'@'
aS'@'
aS'@'
aS'@'
aS'@'
aa(lp821
S'@'
aS'@'
aS'@'
aS'@'
aS'@'
aS'@'
aS'@'
aS'@'
aS'@'
aS'@'
aS'@'
aS'@'
aS'@'
aS'@'
aS'@'
aS'@'
aS'@'
aS'@'
aS'@'
aS'@'
aasI11
(lp822
(lp823
S'@'
aS'@'
aS'@'
aS'@'
aS'@'
aS'@'
aS'@'
aS'@'
aS'@'
aS'@'
aS'@'
aS'@'
aS'@'
aS'@'
aS'@'
aS'@'
aS'@'
aS'@'
aS'@'
aS'@'
aa(lp824
S'@'
aS'@'
aS'@'
aS'@'
aS'@'
aS'@'
aS'@'
aS'@'
aS'@'
aS'@'
aS'@'
aS'@'
aS'@'
aS'@'
aS'@'
aS'@'
aS'@'
aS'@'
aS'@'
aS'@'
aa(lp825
S'@'
aS'@'
aS'@'
aS'@'
aS'@'
aS'@'
aS'@'
aS'@'
aS'@'
aS'@'
aS'@'
aS'@'
aS'@'
aS'@'
aS'@'
aS'@'
aS'@'
aS'@'
aS'@'
aS'@'
aa(lp826
S'@'
aS'@'
aS'@'
aS'@'
aS'@'
aS'@'
aS'@'
aS'@'
aS'@'
aS'@'
aS'@'
aS'@'
aS'@'
aS'@'
aS'@'
aS'@'
aS'@'
aS'@'
aS'@'
aS'@'
aa(lp827
S'@'
aS'@'
aS'@'
aS'@'
aS'@'
aS'@'
aS'@'
aS'@'
aS'@'
aS'@'
aS'@'
aS'@'
aS'@'
aS'@'
aS'@'
aS'@'
aS'@'
aS'@'
aS'@'
aS'@'
aa(lp828
S'@'
aS'@'
aS'@'
aS'@'
aS'@'
aS'@'
aS'@'
aS'@'
aS'@'
aS'@'
aS'@'
aS'@'
aS'@'
aS'@'
aS'@'
aS'@'
aS'@'
aS'@'
aS'@'
aS'@'
aa(lp829
S'@'
aS'@'
aS'@'
aS'@'
aS'@'
aS'@'
aS'@'
aS'@'
aS'@'
aS'@'
aS'@'
aS'@'
aS'@'
aS'@'
aS'@'
aS'@'
aS'@'
aS'@'
aS'@'
aS'@'
aa(lp830
S'@'
aS'@'
aS'@'
aS'@'
aS'@'
aS'@'
aS'@'
aS'@'
aS'@'
aS'@'
aS'@'
aS'@'
aS'@'
aS'@'
aS'@'
aS'@'
aS'@'
aS'@'
aS'@'
aS'@'
aa(lp831
S'@'
aS'@'
aS'@'
aS'@'
aS'@'
aS'@'
aS'@'
aS'@'
aS'@'
aS'@'
aS'@'
aS'@'
aS'@'
aS'@'
aS'@'
aS'@'
aS'@'
aS'@'
aS'@'
aS'@'
aa(lp832
S'@'
aS'@'
aS'@'
aS'@'
aS'@'
aS'@'
aS'@'
aS'@'
aS'@'
aS'@'
aS'@'
aS'@'
aS'@'
aS'@'
aS'@'
aS'@'
aS'@'
aS'@'
aS'@'
aS'@'
aa(lp833
S'@'
aS'@'
aS'@'
aS'@'
aS'@'
aS'@'
aS'@'
aS'@'
aS'@'
aS'@'
aS'@'
aS'@'
aS'@'
aS'@'
aS'@'
aS'@'
aS'@'
aS'@'
aS'@'
aS'@'
aa(lp834
S'@'
aS'@'
aS'@'
aS'@'
aS'@'
aS'@'
aS'@'
aS'@'
aS'@'
aS'@'
aS'@'
aS'@'
aS'@'
aS'@'
aS'@'
aS'@'
aS'@'
aS'@'
aS'@'
aS'@'
aa(lp835
S'@'
aS'@'
aS'@'
aS'@'
aS'@'
aS'@'
aS'@'
aS'@'
aS'@'
aS'@'
aS'@'
aS'@'
aS'@'
aS'@'
aS'@'
aS'@'
aS'@'
aS'@'
aS'@'
aS'@'
aa(lp836
S'@'
aS'@'
aS'@'
aS'@'
aS'@'
aS'@'
aS'@'
aS'@'
aS'@'
aS'@'
aS'@'
aS'@'
aS'@'
aS'@'
aS'@'
aS'@'
aS'@'
aS'@'
aS'@'
aS'@'
aa(lp837
S'@'
aS'@'
aS'@'
aS'@'
aS'@'
aS'@'
aS'@'
aS'@'
aS'@'
aS'@'
aS'@'
aS'@'
aS'@'
aS'@'
aS'@'
aS'@'
aS'@'
aS'@'
aS'@'
aS'@'
aa(lp838
S'@'
aS'@'
aS'@'
aS'@'
aS'@'
aS'@'
aS'@'
aS'@'
aS'@'
aS'@'
aS'@'
aS'@'
aS'@'
aS'@'
aS'@'
aS'@'
aS'@'
aS'@'
aS'@'
aS'@'
aa(lp839
S'@'
aS'@'
aS'@'
aS'@'
aS'@'
aS'@'
aS'@'
aS'@'
aS'@'
aS'@'
aS'@'
aS'@'
aS'@'
aS'@'
aS'@'
aS'@'
aS'@'
aS'@'
aS'@'
aS'@'
aa(lp840
S'@'
aS'@'
aS'@'
aS'@'
aS'@'
aS'@'
aS'@'
aS'@'
aS'@'
aS'@'
aS'@'
aS'@'
aS'@'
aS'@'
aS'@'
aS'@'
aS'@'
aS'@'
aS'@'
aS'@'
aa(lp841
S'@'
aS'@'
aS'@'
aS'@'
aS'@'
aS'@'
aS'@'
aS'@'
aS'@'
aS'@'
aS'@'
aS'@'
aS'@'
aS'@'
aS'@'
aS'@'
aS'@'
aS'@'
aS'@'
aS'@'
aa(lp842
S'@'
aS'@'
aS'@'
aS'@'
aS'@'
aS'@'
aS'@'
aS'@'
aS'@'
aS'@'
aS'@'
aS'@'
aS'@'
aS'@'
aS'@'
aS'@'
aS'@'
aS'@'
aS'@'
aS'@'
aasI12
(lp843
(lp844
S'@'
aS'@'
aS'@'
aS'@'
aS'@'
aS'@'
aS'@'
aS'@'
aS'@'
aS'@'
aS'@'
aS'@'
aS'@'
aS'@'
aS'@'
aS'@'
aS'@'
aS'@'
aS'@'
aS'@'
aa(lp845
S'@'
aS'@'
aS'@'
aS'@'
aS'@'
aS'@'
aS'@'
aS'@'
aS'@'
aS'@'
aS'@'
aS'@'
aS'@'
aS'@'
aS'@'
aS'@'
aS'@'
aS'@'
aS'@'
aS'@'
aa(lp846
S'@'
aS'@'
aS'@'
aS'@'
aS'@'
aS'@'
aS'@'
aS'@'
aS'@'
aS'@'
aS'@'
aS'@'
aS'@'
aS'@'
aS'@'
aS'@'
aS'@'
aS'@'
aS'@'
aS'@'
aa(lp847
S'@'
aS'@'
aS'@'
aS'@'
aS'@'
aS'@'
aS'@'
aS'@'
aS'@'
aS'@'
aS'@'
aS'@'
aS'@'
aS'@'
aS'@'
aS'@'
aS'@'
aS'@'
aS'@'
aS'@'
aa(lp848
S'@'
aS'@'
aS'@'
aS'@'
aS'@'
aS'@'
aS'@'
aS'@'
aS'@'
aS'@'
aS'@'
aS'@'
aS'@'
aS'@'
aS'@'
aS'@'
aS'@'
aS'@'
aS'@'
aS'@'
aa(lp849
S'@'
aS'@'
aS'@'
aS'@'
aS'@'
aS'@'
aS'@'
aS'@'
aS'@'
aS'@'
aS'@'
aS'@'
aS'@'
aS'@'
aS'@'
aS'@'
aS'@'
aS'@'
aS'@'
aS'@'
aa(lp850
S'@'
aS'@'
aS'@'
aS'@'
aS'@'
aS'@'
aS'@'
aS'@'
aS'@'
aS'@'
aS'@'
aS'@'
aS'@'
aS'@'
aS'@'
aS'@'
aS'@'
aS'@'
aS'@'
aS'@'
aa(lp851
S'@'
aS'@'
aS'@'
aS'@'
aS'@'
aS'@'
aS'@'
aS'@'
aS'@'
aS'@'
aS'@'
aS'@'
aS'@'
aS'@'
aS'@'
aS'@'
aS'@'
aS'@'
aS'@'
aS'@'
aa(lp852
S'@'
aS'@'
aS'@'
aS'@'
aS'@'
aS'@'
aS'@'
aS'@'
aS'@'
aS'@'
aS'@'
aS'@'
aS'@'
aS'@'
aS'@'
aS'@'
aS'@'
aS'@'
aS'@'
aS'@'
aa(lp853
S'@'
aS'@'
aS'@'
aS'@'
aS'@'
aS'@'
aS'@'
aS'@'
aS'@'
aS'@'
aS'@'
aS'@'
aS'@'
aS'@'
aS'@'
aS'@'
aS'@'
aS'@'
aS'@'
aS'@'
aa(lp854
S'@'
aS'@'
aS'@'
aS'@'
aS'@'
aS'@'
aS'@'
aS'@'
aS'@'
aS'@'
aS'@'
aS'@'
aS'@'
aS'@'
aS'@'
aS'@'
aS'@'
aS'@'
aS'@'
aS'@'
aa(lp855
S'@'
aS'@'
aS'@'
aS'@'
aS'@'
aS'@'
aS'@'
aS'@'
aS'@'
aS'@'
aS'@'
aS'@'
aS'@'
aS'@'
aS'@'
aS'@'
aS'@'
aS'@'
aS'@'
aS'@'
aa(lp856
S'@'
aS'@'
aS'@'
aS'@'
aS'@'
aS'@'
aS'@'
aS'@'
aS'@'
aS'@'
aS'@'
aS'@'
aS'@'
aS'@'
aS'@'
aS'@'
aS'@'
aS'@'
aS'@'
aS'@'
aa(lp857
S'@'
aS'@'
aS'@'
aS'@'
aS'@'
aS'@'
aS'@'
aS'@'
aS'@'
aS'@'
aS'@'
aS'@'
aS'@'
aS'@'
aS'@'
aS'@'
aS'@'
aS'@'
aS'@'
aS'@'
aa(lp858
S'@'
aS'@'
aS'@'
aS'@'
aS'@'
aS'@'
aS'@'
aS'@'
aS'@'
aS'@'
aS'@'
aS'@'
aS'@'
aS'@'
aS'@'
aS'@'
aS'@'
aS'@'
aS'@'
aS'@'
aa(lp859
S'@'
aS'@'
aS'@'
aS'@'
aS'@'
aS'@'
aS'@'
aS'@'
aS'@'
aS'@'
aS'@'
aS'@'
aS'@'
aS'@'
aS'@'
aS'@'
aS'@'
aS'@'
aS'@'
aS'@'
aa(lp860
S'@'
aS'@'
aS'@'
aS'@'
aS'@'
aS'@'
aS'@'
aS'@'
aS'@'
aS'@'
aS'@'
aS'@'
aS'@'
aS'@'
aS'@'
aS'@'
aS'@'
aS'@'
aS'@'
aS'@'
aa(lp861
S'@'
aS'@'
aS'@'
aS'@'
aS'@'
aS'@'
aS'@'
aS'@'
aS'@'
aS'@'
aS'@'
aS'@'
aS'@'
aS'@'
aS'@'
aS'@'
aS'@'
aS'@'
aS'@'
aS'@'
aa(lp862
S'@'
aS'@'
aS'@'
aS'@'
aS'@'
aS'@'
aS'@'
aS'@'
aS'@'
aS'@'
aS'@'
aS'@'
aS'@'
aS'@'
aS'@'
aS'@'
aS'@'
aS'@'
aS'@'
aS'@'
aa(lp863
S'@'
aS'@'
aS'@'
aS'@'
aS'@'
aS'@'
aS'@'
aS'@'
aS'@'
aS'@'
aS'@'
aS'@'
aS'@'
aS'@'
aS'@'
aS'@'
aS'@'
aS'@'
aS'@'
aS'@'
aasI13
(lp864
(lp865
S'@'
aS'@'
aS'@'
aS'@'
aS'@'
aS'@'
aS'@'
aS'@'
aS'@'
aS'@'
aS'@'
aS'@'
aS'@'
aS'@'
aS'@'
aS'@'
aS'@'
aS'@'
aS'@'
aS'@'
aa(lp866
S'@'
aS'@'
aS'@'
aS'@'
aS'@'
aS'@'
aS'@'
aS'@'
aS'@'
aS'@'
aS'@'
aS'@'
aS'@'
aS'@'
aS'@'
aS'@'
aS'@'
aS'@'
aS'@'
aS'@'
aa(lp867
S'@'
aS'@'
aS'@'
aS'@'
aS'@'
aS'@'
aS'@'
aS'@'
aS'@'
aS'@'
aS'@'
aS'@'
aS'@'
aS'@'
aS'@'
aS'@'
aS'@'
aS'@'
aS'@'
aS'@'
aa(lp868
S'@'
aS'@'
aS'@'
aS'@'
aS'@'
aS'@'
aS'@'
aS'@'
aS'@'
aS'@'
aS'@'
aS'@'
aS'@'
aS'@'
aS'@'
aS'@'
aS'@'
aS'@'
aS'@'
aS'@'
aa(lp869
S'@'
aS'@'
aS'@'
aS'@'
aS'@'
aS'@'
aS'@'
aS'@'
aS'@'
aS'@'
aS'@'
aS'@'
aS'@'
aS'@'
aS'@'
aS'@'
aS'@'
aS'@'
aS'@'
aS'@'
aa(lp870
S'@'
aS'@'
aS'@'
aS'@'
aS'@'
aS'@'
aS'@'
aS'@'
aS'@'
aS'@'
aS'@'
aS'@'
aS'@'
aS'@'
aS'@'
aS'@'
aS'@'
aS'@'
aS'@'
aS'@'
aa(lp871
S'@'
aS'@'
aS'@'
aS'@'
aS'@'
aS'@'
aS'@'
aS'@'
aS'@'
aS'@'
aS'@'
aS'@'
aS'@'
aS'@'
aS'@'
aS'@'
aS'@'
aS'@'
aS'@'
aS'@'
aa(lp872
S'@'
aS'@'
aS'@'
aS'@'
aS'@'
aS'@'
aS'@'
aS'@'
aS'@'
aS'@'
aS'@'
aS'@'
aS'@'
aS'@'
aS'@'
aS'@'
aS'@'
aS'@'
aS'@'
aS'@'
aa(lp873
S'@'
aS'@'
aS'@'
aS'@'
aS'@'
aS'@'
aS'@'
aS'@'
aS'@'
aS'@'
aS'@'
aS'@'
aS'@'
aS'@'
aS'@'
aS'@'
aS'@'
aS'@'
aS'@'
aS'@'
aa(lp874
S'@'
aS'@'
aS'@'
aS'@'
aS'@'
aS'@'
aS'@'
aS'@'
aS'@'
aS'@'
aS'@'
aS'@'
aS'@'
aS'@'
aS'@'
aS'@'
aS'@'
aS'@'
aS'@'
aS'@'
aa(lp875
S'@'
aS'@'
aS'@'
aS'@'
aS'@'
aS'@'
aS'@'
aS'@'
aS'@'
aS'@'
aS'@'
aS'@'
aS'@'
aS'@'
aS'@'
aS'@'
aS'@'
aS'@'
aS'@'
aS'@'
aa(lp876
S'@'
aS'@'
aS'@'
aS'@'
aS'@'
aS'@'
aS'@'
aS'@'
aS'@'
aS'@'
aS'@'
aS'@'
aS'@'
aS'@'
aS'@'
aS'@'
aS'@'
aS'@'
aS'@'
aS'@'
aa(lp877
S'@'
aS'@'
aS'@'
aS'@'
aS'@'
aS'@'
aS'@'
aS'@'
aS'@'
aS'@'
aS'@'
aS'@'
aS'@'
aS'@'
aS'@'
aS'@'
aS'@'
aS'@'
aS'@'
aS'@'
aa(lp878
S'@'
aS'@'
aS'@'
aS'@'
aS'@'
aS'@'
aS'@'
aS'@'
aS'@'
aS'@'
aS'@'
aS'@'
aS'@'
aS'@'
aS'@'
aS'@'
aS'@'
aS'@'
aS'@'
aS'@'
aa(lp879
S'@'
aS'@'
aS'@'
aS'@'
aS'@'
aS'@'
aS'@'
aS'@'
aS'@'
aS'@'
aS'@'
aS'@'
aS'@'
aS'@'
aS'@'
aS'@'
aS'@'
aS'@'
aS'@'
aS'@'
aa(lp880
S'@'
aS'@'
aS'@'
aS'@'
aS'@'
aS'@'
aS'@'
aS'@'
aS'@'
aS'@'
aS'@'
aS'@'
aS'@'
aS'@'
aS'@'
aS'@'
aS'@'
aS'@'
aS'@'
aS'@'
aa(lp881
S'@'
aS'@'
aS'@'
aS'@'
aS'@'
aS'@'
aS'@'
aS'@'
aS'@'
aS'@'
aS'@'
aS'@'
aS'@'
aS'@'
aS'@'
aS'@'
aS'@'
aS'@'
aS'@'
aS'@'
aa(lp882
S'@'
aS'@'
aS'@'
aS'@'
aS'@'
aS'@'
aS'@'
aS'@'
aS'@'
aS'@'
aS'@'
aS'@'
aS'@'
aS'@'
aS'@'
aS'@'
aS'@'
aS'@'
aS'@'
aS'@'
aa(lp883
S'@'
aS'@'
aS'@'
aS'@'
aS'@'
aS'@'
aS'@'
aS'@'
aS'@'
aS'@'
aS'@'
aS'@'
aS'@'
aS'@'
aS'@'
aS'@'
aS'@'
aS'@'
aS'@'
aS'@'
aa(lp884
S'@'
aS'@'
aS'@'
aS'@'
aS'@'
aS'@'
aS'@'
aS'@'
aS'@'
aS'@'
aS'@'
aS'@'
aS'@'
aS'@'
aS'@'
aS'@'
aS'@'
aS'@'
aS'@'
aS'@'
aas.