(dp1
I0
(lp2
(lp3
S'X'
aS'X'
aS'X'
aS'X'
aS'3_0'
p4
aS'3_0'
p5
aS'3_0'
p6
aS'3_0'
p7
aS'3_0'
p8
aS'3_0'
p9
aS'3_0'
p10
aS'3_0'
p11
aS'3_0'
p12
aS'3_0'
p13
aS'3_0'
p14
aS'3_0'
p15
aS'3_0'
p16
aS'3_0'
p17
aS'3_0'
p18
aS'3_0'
p19
aa(lp20
S'X'
aS'X'
aS'X'
aS'X'
aS'X'
aS'X'
aS'3_0'
p21
aS'3_0'
p22
aS'3_0'
p23
aS'3_0'
p24
aS'3_0'
p25
aS'3_0'
p26
aS'3_0'
p27
aS'3_0'
p28
aS'3_0'
p29
aS'3_0'
p30
aS'3_0'
p31
aS'3_0'
p32
aS'3_0'
p33
aS'3_0'
p34
aa(lp35
S'X'
aS'X'
aS'X'
aS'X'
aS'X'
aS'X'
aS'X'
aS'X'
aS'X'
aS'3_0'
p36
aS'3_0'
p37
aS'3_0'
p38
aS'3_0'
p39
aS'3_0'
p40
aS'3_0'
p41
aS'3_0'
p42
aS'3_0'
p43
aS'3_0'
p44
aS'3_0'
p45
aS'3_0'
p46
aa(lp47
S'X'
aS'X'
aS'X'
aS'X'
aS'X'
aS'X'
aS'X'
aS'X'
aS'X'
aS'X'
aS'X'
aS'X'
aS'X'
aS'3_0'
p48
aS'3_0'
p49
aS'3_0'
p50
aS'3_0'
p51
aS'3_0'
p52
aS'3_0'
p53
aS'3_0'
p54
aa(lp55
S'X'
aS'X'
aS'X'
aS'X'
aS'X'
aS'X'
aS'X'
aS'X'
aS'X'
aS'X'
aS'X'
aS'X'
aS'X'
aS'X'
aS'X'
aS'X'
aS'X'
aS'X'
aS'X'
aS'3_0'
p56
aa(lp57
S'X'
aS'X'
aS'X'
aS'X'
aS'X'
aS'X'
aS'X'
aS'X'
aS'X'
aS'X'
aS'X'
aS'X'
aS'X'
aS'X'
aS'X'
aS'X'
aS'X'
aS'X'
aS'X'
aS'3_0'
p58
aa(lp59
S'X'
aS'X'
aS'X'
aS'X'
aS'X'
aS'X'
aS'X'
aS'X'
aS'X'
aS'X'
aS'X'
aS'X'
aS'X'
aS'X'
aS'X'
aS'X'
aS'X'
aS'X'
aS'X'
aS'3_0'
p60
aa(lp61
S'X'
aS'X'
aS'X'
aS'X'
aS'X'
aS'X'
aS'X'
aS'X'
aS'X'
aS'X'
aS'X'
aS'X'
aS'X'
aS'X'
aS'X'
aS'X'
aS'X'
aS'X'
aS'X'
aS'3_0'
p62
aa(lp63
S'X'
aS'X'
aS'X'
aS'X'
aS'X'
aS'X'
aS'X'
aS'X'
aS'X'
aS'X'
aS'X'
aS'X'
aS'X'
aS'X'
aS'X'
aS'X'
aS'X'
aS'X'
aS'X'
aS'3_0'
p64
aa(lp65
S'X'
aS'X'
aS'X'
aS'X'
aS'X'
aS'X'
aS'X'
aS'X'
aS'X'
aS'X'
aS'X'
aS'X'
aS'X'
aS'X'
aS'X'
aS'X'
aS'X'
aS'X'
aS'X'
aS'3_0'
p66
aa(lp67
S'X'
aS'X'
aS'X'
aS'X'
aS'X'
aS'X'
aS'X'
aS'X'
aS'X'
aS'X'
aS'X'
aS'X'
aS'X'
aS'X'
aS'X'
aS'X'
aS'X'
aS'X'
aS'X'
aS'3_0'
p68
aa(lp69
S'X'
aS'X'
aS'X'
aS'X'
aS'X'
aS'X'
aS'X'
aS'X'
aS'X'
aS'X'
aS'X'
aS'X'
aS'X'
aS'X'
aS'X'
aS'X'
aS'X'
aS'X'
aS'X'
aS'3_0'
p70
aa(lp71
S'X'
aS'X'
aS'X'
aS'X'
aS'X'
aS'X'
aS'X'
aS'X'
aS'X'
aS'X'
aS'X'
aS'X'
aS'X'
aS'X'
aS'X'
aS'X'
aS'X'
aS'X'
aS'X'
aS'3_0'
p72
aa(lp73
S'X'
aS'X'
aS'X'
aS'X'
aS'X'
aS'X'
aS'X'
aS'X'
aS'X'
aS'X'
aS'X'
aS'X'
aS'X'
aS'X'
aS'X'
aS'X'
aS'X'
aS'X'
aS'X'
aS'3_0'
p74
aa(lp75
S'X'
aS'X'
aS'X'
aS'X'
aS'X'
aS'X'
aS'X'
aS'X'
aS'X'
aS'X'
aS'X'
aS'X'
aS'X'
aS'X'
aS'X'
aS'X'
aS'X'
aS'X'
aS'X'
aS'3_0'
p76
aa(lp77
S'X'
aS'X'
aS'X'
aS'X'
aS'X'
aS'X'
aS'X'
aS'X'
aS'X'
aS'X'
aS'X'
aS'X'
aS'X'
aS'X'
aS'X'
aS'X'
aS'X'
aS'X'
aS'X'
aS'3_0'
p78
aa(lp79
S'X'
aS'X'
aS'X'
aS'X'
aS'X'
aS'X'
aS'X'
aS'X'
aS'X'
aS'X'
aS'X'
aS'X'
aS'X'
aS'X'
aS'X'
aS'X'
aS'X'
aS'X'
aS'X'
aS'3_0'
p80
aa(lp81
S'X'
aS'X'
aS'X'
aS'X'
aS'X'
aS'X'
aS'X'
aS'X'
aS'X'
aS'X'
aS'X'
aS'X'
aS'X'
aS'X'
aS'X'
aS'X'
aS'X'
aS'X'
aS'X'
aS'3_0'
p82
aa(lp83
S'X'
aS'X'
aS'X'
aS'X'
aS'X'
aS'X'
aS'X'
aS'X'
aS'X'
aS'X'
aS'X'
aS'X'
aS'X'
aS'X'
aS'X'
aS'X'
aS'X'
aS'X'
aS'X'
aS'3_0'
p84
aa(lp85
S'3_0'
p86
aS'3_0'
p87
aS'3_0'
p88
aS'3_0'
p89
aS'3_0'
p90
aS'3_0'
p91
aS'3_0'
p92
aS'3_0'
p93
aS'3_0'
p94
aS'3_0'
p95
aS'3_0'
p96
aS'3_0'
p97
aS'3_0'
p98
aS'3_0'
p99
aS'3_0'
p100
aS'3_0'
p101
aS'3_0'
p102
aS'3_0'
p103
aS'3_0'
p104
aS'3_0'
p105
aasI1
(lp106
(lp107
S'3_0'
p108
aS'3_0'
p109
aS'3_0'
p110
aS'3_0'
p111
aS'1'
aS'1'
aS'1'
aS'1'
aS'1'
aS'1'
aS'1'
aS'1'
aS'1'
aS'1'
aS'1'
aS'1'
aS'1'
aS'1'
aS'1'
aS'1'
aa(lp112
S'3_0'
p113
aS'3_0'
p114
aS'3_0'
p115
aS'3_0'
p116
aS'3_0'
p117
aS'3_0'
p118
aS'1'
aS'1'
aS'1'
aS'1'
aS'1'
aS'1'
aS'1'
aS'1'
aS'1'
aS'1'
aS'1'
aS'1'
aS'1'
aS'1'
aa(lp119
S'3_0'
p120
aS'3_0'
p121
aS'3_0'
p122
aS'3_0'
p123
aS'3_0'
p124
aS'3_0'
p125
aS'3_0'
p126
aS'3_0'
p127
aS'3_0'
p128
aS'1'
aS'1'
aS'1'
aS'1'
aS'1'
aS'1'
aS'1'
aS'1'
aS'1'
aS'1'
aS'1'
aa(lp129
S'X'
aS'X'
aS'X'
aS'X'
aS'X'
aS'X'
aS'X'
aS'3_0'
p130
aS'3_0'
p131
aS'3_0'
p132
aS'3_0'
p133
aS'3_0'
p134
aS'3_0'
p135
aS'1'
aS'1'
aS'1'
aS'1'
aS'1'
aS'1'
aS'1'
aa(lp136
S'X'
aS'X'
aS'X'
aS'X'
aS'X'
aS'X'
aS'X'
aS'X'
aS'X'
aS'X'
aS'X'
aS'3_0'
p137
aS'3_0'
p138
aS'3_0'
p139
aS'3_0'
p140
aS'3_0'
p141
aS'3_0'
p142
aS'3_0'
p143
aS'3_0'
p144
aS'3_0'
p145
aa(lp146
S'X'
aS'X'
aS'X'
aS'X'
aS'X'
aS'X'
aS'X'
aS'X'
aS'X'
aS'X'
aS'X'
aS'X'
aS'X'
aS'X'
aS'X'
aS'X'
aS'X'
aS'X'
aS'X'
aS'3_0'
p147
aa(lp148
S'X'
aS'X'
aS'X'
aS'X'
aS'X'
aS'X'
aS'X'
aS'X'
aS'X'
aS'X'
aS'X'
aS'X'
aS'X'
aS'X'
aS'X'
aS'X'
aS'X'
aS'X'
aS'X'
aS'3_0'
p149
aa(lp150
S'X'
aS'X'
aS'X'
aS'X'
aS'X'
aS'X'
aS'X'
aS'X'
aS'X'
aS'X'
aS'X'
aS'X'
aS'X'
aS'X'
aS'X'
aS'X'
aS'X'
aS'X'
aS'X'
aS'3_0'
p151
aa(lp152
S'X'
aS'X'
aS'X'
aS'X'
aS'X'
aS'X'
aS'X'
aS'X'
aS'X'
aS'X'
aS'X'
aS'X'
aS'X'
aS'X'
aS'X'
aS'X'
aS'X'
aS'X'
aS'X'
aS'3_0'
p153
aa(lp154
S'X'
aS'X'
aS'X'
aS'X'
aS'X'
aS'X'
aS'X'
aS'X'
aS'X'
aS'X'
aS'X'
aS'X'
aS'X'
aS'X'
aS'X'
aS'X'
aS'X'
aS'X'
aS'X'
aS'3_0'
p155
aa(lp156
S'X'
aS'X'
aS'X'
aS'X'
aS'X'
aS'X'
aS'X'
aS'X'
aS'X'
aS'X'
aS'X'
aS'X'
aS'X'
aS'X'
aS'X'
aS'X'
aS'X'
aS'X'
aS'X'
aS'3_0'
p157
aa(lp158
S'X'
aS'X'
aS'X'
aS'X'
aS'X'
aS'X'
aS'X'
aS'X'
aS'X'
aS'X'
aS'X'
aS'X'
aS'X'
aS'X'
aS'X'
aS'X'
aS'X'
aS'X'
aS'X'
aS'3_0'
p159
aa(lp160
S'X'
aS'X'
aS'X'
aS'X'
aS'X'
aS'X'
aS'X'
aS'X'
aS'X'
aS'X'
aS'X'
aS'X'
aS'X'
aS'X'
aS'X'
aS'X'
aS'X'
aS'X'
aS'X'
aS'3_0'
p161
aa(lp162
S'X'
aS'X'
aS'X'
aS'X'
aS'X'
aS'X'
aS'X'
aS'X'
aS'X'
aS'X'
aS'X'
aS'X'
aS'X'
aS'X'
aS'X'
aS'X'
aS'X'
aS'X'
aS'X'
aS'3_0'
p163
aa(lp164
S'X'
aS'X'
aS'X'
aS'X'
aS'X'
aS'X'
aS'X'
aS'X'
aS'X'
aS'X'
aS'X'
aS'X'
aS'X'
aS'X'
aS'X'
aS'X'
aS'X'
aS'X'
aS'X'
aS'3_0'
p165
aa(lp166
S'X'
aS'X'
aS'X'
aS'X'
aS'X'
aS'X'
aS'X'
aS'X'
aS'X'
aS'X'
aS'X'
aS'X'
aS'X'
aS'X'
aS'X'
aS'X'
aS'X'
aS'X'
aS'X'
aS'3_0'
p167
aa(lp168
S'X'
aS'X'
aS'X'
aS'X'
aS'X'
aS'X'
aS'X'
aS'X'
aS'X'
aS'X'
aS'X'
aS'X'
aS'X'
aS'X'
aS'X'
aS'X'
aS'X'
aS'X'
aS'X'
aS'3_0'
p169
aa(lp170
S'X'
aS'X'
aS'X'
aS'X'
aS'X'
aS'X'
aS'X'
aS'X'
aS'X'
aS'X'
aS'X'
aS'X'
aS'X'
aS'X'
aS'X'
aS'X'
aS'X'
aS'X'
aS'X'
aS'3_0'
p171
aa(lp172
S'X'
aS'X'
aS'X'
aS'X'
aS'X'
aS'X'
aS'X'
aS'X'
aS'X'
aS'X'
aS'X'
aS'X'
aS'X'
aS'X'
aS'X'
aS'X'
aS'X'
aS'X'
aS'X'
aS'3_0'
p173
aa(lp174
S'3_0'
p175
aS'3_0'
p176
aS'3_0'
p177
aS'3_0'
p178
aS'3_0'
p179
aS'3_0'
p180
aS'3_0'
p181
aS'3_0'
p182
aS'3_0'
p183
aS'3_0'
p184
aS'3_0'
p185
aS'3_0'
p186
aS'3_0'
p187
aS'3_0'
p188
aS'3_0'
p189
aS'3_0'
p190
aS'3_0'
p191
aS'3_0'
p192
aS'3_0'
p193
aS'3_0'
p194
aasI2
(lp195
(lp196
S'1'
aS'1'
aS'1'
aS'1'
aS'1'
aS'1'
aS'1'
aS'1'
aS'1'
aS'1'
aS'1'
aS'1'
aS'1'
aS'1'
aS'1'
aS'1'
aS'1'
aS'1'
aS'1'
aS'1'
aa(lp197
S'1'
aS'1'
aS'1'
aS'1'
aS'1'
aS'1'
aS'1'
aS'1'
aS'1'
aS'1'
aS'1'
aS'1'
aS'1'
aS'1'
aS'1'
aS'1'
aS'1'
aS'1'
aS'1'
aS'1'
aa(lp198
S'1'
aS'1'
aS'1'
aS'1'
aS'1'
aS'1'
aS'1'
aS'1'
aS'1'
aS'1'
aS'1'
aS'1'
aS'1'
aS'1'
aS'1'
aS'1'
aS'1'
aS'1'
aS'1'
aS'1'
aa(lp199
S'3_0'
p200
aS'3_0'
p201
aS'3_0'
p202
aS'3_0'
p203
aS'3_0'
p204
aS'3_0'
p205
aS'3_0'
p206
aS'1'
aS'1'
aS'1'
aS'1'
aS'1'
aS'1'
aS'1'
aS'1'
aS'1'
aS'1'
aS'1'
aS'1'
aS'1'
aa(lp207
S'3_0'
p208
aS'X'
aS'X'
aS'X'
aS'X'
aS'3_0'
p209
aS'3_0'
p210
aS'3_0'
p211
aS'3_0'
p212
aS'3_0'
p213
aS'3_0'
p214
aS'1'
aS'1'
aS'1'
aS'1'
aS'1'
aS'1'
aS'1'
aS'1'
aS'1'
aa(lp215
S'X'
aS'X'
aS'X'
aS'X'
aS'X'
aS'X'
aS'X'
aS'X'
aS'X'
aS'X'
aS'X'
aS'3_0'
p216
aS'3_0'
p217
aS'3_0'
p218
aS'3_0'
p219
aS'3_0'
p220
aS'3_0'
p221
aS'3_0'
p222
aS'3_0'
p223
aS'1'
aa(lp224
S'X'
aS'X'
aS'X'
aS'X'
aS'X'
aS'X'
aS'X'
aS'X'
aS'X'
aS'X'
aS'X'
aS'X'
aS'X'
aS'X'
aS'X'
aS'X'
aS'X'
aS'3_0'
p225
aS'3_0'
p226
aS'3_0'
p227
aa(lp228
S'X'
aS'X'
aS'X'
aS'X'
aS'X'
aS'X'
aS'X'
aS'X'
aS'X'
aS'X'
aS'X'
aS'X'
aS'X'
aS'X'
aS'X'
aS'X'
aS'X'
aS'X'
aS'X'
aS'3_0'
p229
aa(lp230
S'X'
aS'X'
aS'X'
aS'X'
aS'X'
aS'X'
aS'X'
aS'X'
aS'X'
aS'X'
aS'X'
aS'X'
aS'X'
aS'X'
aS'X'
aS'X'
aS'X'
aS'X'
aS'X'
aS'3_0'
p231
aa(lp232
S'X'
aS'X'
aS'X'
aS'X'
aS'X'
aS'X'
aS'X'
aS'X'
aS'X'
aS'X'
aS'X'
aS'X'
aS'X'
aS'X'
aS'X'
aS'X'
aS'X'
aS'X'
aS'X'
aS'3_0'
p233
aa(lp234
S'X'
aS'X'
aS'X'
aS'X'
aS'X'
aS'X'
aS'X'
aS'X'
aS'X'
aS'X'
aS'X'
aS'X'
aS'X'
aS'X'
aS'X'
aS'X'
aS'X'
aS'X'
aS'X'
aS'3_0'
p235
aa(lp236
S'X'
aS'X'
aS'X'
aS'X'
aS'X'
aS'X'
aS'X'
aS'X'
aS'X'
aS'X'
aS'X'
aS'X'
aS'X'
aS'X'
aS'X'
aS'X'
aS'X'
aS'X'
aS'X'
aS'3_0'
p237
aa(lp238
S'X'
aS'X'
aS'X'
aS'X'
aS'X'
aS'X'
aS'X'
aS'X'
aS'X'
aS'X'
aS'X'
aS'X'
aS'X'
aS'X'
aS'X'
aS'X'
aS'X'
aS'X'
aS'X'
aS'3_0'
p239
aa(lp240
S'X'
aS'X'
aS'X'
aS'X'
aS'X'
aS'X'
aS'X'
aS'X'
aS'X'
aS'X'
aS'X'
aS'X'
aS'X'
aS'X'
aS'X'
aS'X'
aS'X'
aS'X'
aS'X'
aS'3_0'
p241
aa(lp242
S'X'
aS'X'
aS'X'
aS'X'
aS'X'
aS'X'
aS'X'
aS'X'
aS'X'
aS'X'
aS'X'
aS'X'
aS'X'
aS'X'
aS'X'
aS'X'
aS'X'
aS'X'
aS'X'
aS'3_0'
p243
aa(lp244
S'X'
aS'X'
aS'X'
aS'X'
aS'X'
aS'X'
aS'X'
aS'X'
aS'X'
aS'X'
aS'X'
aS'X'
aS'X'
aS'X'
aS'X'
aS'X'
aS'X'
aS'X'
aS'X'
aS'3_0'
p245
aa(lp246
S'X'
aS'X'
aS'X'
aS'X'
aS'X'
aS'X'
aS'X'
aS'X'
aS'X'
aS'X'
aS'X'
aS'X'
aS'X'
aS'X'
aS'X'
aS'X'
aS'X'
aS'X'
aS'X'
aS'3_0'
p247
aa(lp248
S'X'
aS'X'
aS'X'
aS'X'
aS'X'
aS'X'
aS'X'
aS'X'
aS'X'
aS'X'
aS'X'
aS'X'
aS'X'
aS'X'
aS'X'
aS'X'
aS'X'
aS'X'
aS'X'
aS'3_0'
p249
aa(lp250
S'X'
aS'X'
aS'X'
aS'X'
aS'X'
aS'X'
aS'X'
aS'X'
aS'X'
aS'X'
aS'X'
aS'X'
aS'X'
aS'X'
aS'X'
aS'X'
aS'X'
aS'X'
aS'X'
aS'3_0'
p251
aa(lp252
S'3_0'
p253
aS'3_0'
p254
aS'3_0'
p255
aS'3_0'
p256
aS'3_0'
p257
aS'3_0'
p258
aS'3_0'
p259
aS'3_0'
p260
aS'3_0'
p261
aS'3_0'
p262
aS'3_0'
p263
aS'3_0'
p264
aS'3_0'
p265
aS'3_0'
p266
aS'3_0'
p267
aS'3_0'
p268
aS'3_0'
p269
aS'3_0'
p270
aS'3_0'
p271
aS'3_0'
p272
aasI3
(lp273
(lp274
S'1'
aS'1'
aS'1'
aS'1'
aS'1'
aS'1'
aS'1'
aS'1'
aS'1'
aS'1'
aS'1'
aS'1'
aS'1'
aS'1'
aS'1'
aS'1'
aS'1'
aS'1'
aS'1'
aS'1'
aa(lp275
S'1'
aS'1'
aS'1'
aS'1'
aS'1'
aS'1'
aS'1'
aS'1'
aS'1'
aS'1'
aS'1'
aS'1'
aS'1'
aS'1'
aS'1'
aS'1'
aS'1'
aS'1'
aS'1'
aS'1'
aa(lp276
S'1'
aS'1'
aS'1'
aS'1'
aS'1'
aS'1'
aS'1'
aS'1'
aS'1'
aS'1'
aS'1'
aS'1'
aS'1'
aS'1'
aS'1'
aS'1'
aS'1'
aS'1'
aS'1'
aS'1'
aa(lp277
S'1'
aS'1'
aS'1'
aS'1'
aS'1'
aS'1'
aS'1'
aS'1'
aS'1'
aS'1'
aS'1'
aS'1'
aS'1'
aS'1'
aS'1'
aS'1'
aS'1'
aS'1'
aS'1'
aS'1'
aa(lp278
S'1'
aS'3_0'
p279
aS'3_0'
p280
aS'3_0'
p281
aS'3_0'
p282
aS'1'
aS'1'
aS'1'
aS'1'
aS'1'
aS'1'
aS'1'
aS'1'
aS'1'
aS'1'
aS'1'
aS'1'
aS'1'
aS'1'
aS'1'
aa(lp283
S'3_0'
p284
aS'3_0'
p285
aS'3_0'
p286
aS'3_0'
p287
aS'3_0'
p288
aS'3_0'
p289
aS'3_0'
p290
aS'3_0'
p291
aS'3_0'
p292
aS'3_0'
p293
aS'3_0'
p294
aS'1'
aS'1'
aS'1'
aS'1'
aS'1'
aS'1'
aS'1'
aS'1'
aS'1'
aa(lp295
S'3_0'
p296
aS'3_0'
p297
aS'3_0'
p298
aS'3_0'
p299
aS'3_0'
p300
aS'3_0'
p301
aS'3_0'
p302
aS'3_0'
p303
aS'3_0'
p304
aS'3_0'
p305
aS'3_0'
p306
aS'3_0'
p307
aS'3_0'
p308
aS'3_0'
p309
aS'3_0'
p310
aS'3_0'
p311
aS'3_0'
p312
aS'1'
aS'1'
aS'1'
aa(lp313
S'X'
aS'X'
aS'X'
aS'X'
aS'X'
aS'X'
aS'X'
aS'X'
aS'X'
aS'X'
aS'3_0'
p314
aS'3_0'
p315
aS'3_0'
p316
aS'3_0'
p317
aS'3_0'
p318
aS'3_0'
p319
aS'3_0'
p320
aS'3_0'
p321
aS'3_0'
p322
aS'3_0'
p323
aa(lp324
S'X'
aS'X'
aS'X'
aS'X'
aS'X'
aS'X'
aS'X'
aS'X'
aS'X'
aS'X'
aS'X'
aS'X'
aS'X'
aS'X'
aS'3_0'
p325
aS'3_0'
p326
aS'3_0'
p327
aS'3_0'
p328
aS'3_0'
p329
aS'3_0'
p330
aa(lp331
S'X'
aS'X'
aS'X'
aS'X'
aS'X'
aS'X'
aS'X'
aS'X'
aS'X'
aS'X'
aS'X'
aS'X'
aS'X'
aS'X'
aS'X'
aS'X'
aS'X'
aS'X'
aS'3_0'
p332
aS'3_0'
p333
aa(lp334
S'X'
aS'X'
aS'X'
aS'X'
aS'X'
aS'X'
aS'X'
aS'X'
aS'X'
aS'X'
aS'X'
aS'X'
aS'X'
aS'X'
aS'X'
aS'X'
aS'X'
aS'X'
aS'X'
aS'3_0'
p335
aa(lp336
S'X'
aS'X'
aS'X'
aS'X'
aS'X'
aS'X'
aS'X'
aS'X'
aS'X'
aS'X'
aS'X'
aS'X'
aS'X'
aS'X'
aS'X'
aS'X'
aS'X'
aS'X'
aS'X'
aS'3_0'
p337
aa(lp338
S'X'
aS'X'
aS'X'
aS'X'
aS'X'
aS'X'
aS'X'
aS'X'
aS'X'
aS'X'
aS'X'
aS'X'
aS'X'
aS'X'
aS'X'
aS'X'
aS'X'
aS'X'
aS'X'
aS'3_0'
p339
aa(lp340
S'X'
aS'X'
aS'X'
aS'X'
aS'X'
aS'X'
aS'X'
aS'X'
aS'X'
aS'X'
aS'X'
aS'X'
aS'X'
aS'X'
aS'X'
aS'X'
aS'X'
aS'X'
aS'X'
aS'3_0'
p341
aa(lp342
S'X'
aS'X'
aS'X'
aS'X'
aS'X'
aS'X'
aS'X'
aS'X'
aS'X'
aS'X'
aS'X'
aS'X'
aS'X'
aS'X'
aS'X'
aS'X'
aS'X'
aS'X'
aS'X'
aS'3_0'
p343
aa(lp344
S'X'
aS'X'
aS'X'
aS'X'
aS'X'
aS'X'
aS'X'
aS'X'
aS'X'
aS'X'
aS'X'
aS'X'
aS'X'
aS'X'
aS'X'
aS'X'
aS'X'
aS'X'
aS'X'
aS'3_0'
p345
aa(lp346
S'X'
aS'X'
aS'X'
aS'X'
aS'X'
aS'X'
aS'X'
aS'X'
aS'X'
aS'X'
aS'X'
aS'X'
aS'X'
aS'X'
aS'X'
aS'X'
aS'X'
aS'X'
aS'X'
aS'3_0'
p347
aa(lp348
S'X'
aS'X'
aS'X'
aS'X'
aS'X'
aS'X'
aS'X'
aS'X'
aS'X'
aS'X'
aS'X'
aS'X'
aS'X'
aS'X'
aS'X'
aS'X'
aS'X'
aS'X'
aS'X'
aS'3_0'
p349
aa(lp350
S'X'
aS'X'
aS'X'
aS'X'
aS'X'
aS'X'
aS'X'
aS'X'
aS'X'
aS'X'
aS'X'
aS'X'
aS'X'
aS'X'
aS'X'
aS'X'
aS'X'
aS'X'
aS'X'
aS'3_0'
p351
aa(lp352
S'3_0'
p353
aS'3_0'
p354
aS'3_0'
p355
aS'3_0'
p356
aS'3_0'
p357
aS'3_0'
p358
aS'3_0'
p359
aS'3_0'
p360
aS'3_0'
p361
aS'3_0'
p362
aS'3_0'
p363
aS'3_0'
p364
aS'3_0'
p365
aS'3_0'
p366
aS'3_0'
p367
aS'3_0'
p368
aS'3_0'
p369
aS'3_0'
p370
aS'3_0'
p371
aS'3_0'
p372
aasI4
(lp373
(lp374
S'1'
aS'1'
aS'1'
aS'1'
aS'1'
aS'1'
aS'1'
aS'1'
aS'1'
aS'1'
aS'1'
aS'1'
aS'1'
aS'1'
aS'1'
aS'1'
aS'1'
aS'1'
aS'1'
aS'1'
aa(lp375
S'1'
aS'1'
aS'1'
aS'1'
aS'1'
aS'1'
aS'1'
aS'1'
aS'1'
aS'1'
aS'1'
aS'1'
aS'1'
aS'1'
aS'1'
aS'1'
aS'1'
aS'1'
aS'1'
aS'1'
aa(lp376
S'1'
aS'1'
aS'1'
aS'1'
aS'1'
aS'1'
aS'1'
aS'1'
aS'1'
aS'1'
aS'1'
aS'1'
aS'1'
aS'1'
aS'1'
aS'1'
aS'1'
aS'1'
aS'1'
aS'1'
aa(lp377
S'1'
aS'1'
aS'1'
aS'1'
aS'1'
aS'1'
aS'1'
aS'1'
aS'1'
aS'1'
aS'1'
aS'1'
aS'1'
aS'1'
aS'1'
aS'1'
aS'1'
aS'1'
aS'1'
aS'1'
aa(lp378
S'1'
aS'1'
aS'1'
aS'1'
aS'1'
aS'1'
aS'1'
aS'1'
aS'1'
aS'1'
aS'1'
aS'1'
aS'1'
aS'1'
aS'1'
aS'1'
aS'1'
aS'1'
aS'1'
aS'1'
aa(lp379
S'1'
aS'1'
aS'1'
aS'1'
aS'1'
aS'1'
aS'1'
aS'1'
aS'1'
aS'1'
aS'1'
aS'1'
aS'1'
aS'1'
aS'1'
aS'1'
aS'1'
aS'1'
aS'1'
aS'1'
aa(lp380
S'2'
aS'2'
aS'2'
aS'2'
aS'2'
aS'2'
aS'2'
aS'2'
aS'2'
aS'2'
aS'2'
aS'1'
aS'1'
aS'1'
aS'1'
aS'1'
aS'1'
aS'1'
aS'1'
aS'1'
aa(lp381
S'0_0'
p382
aS'0_0'
p383
aS'0_0'
p384
aS'X'
aS'X'
aS'X'
aS'X'
aS'X'
aS'X'
aS'3_0'
p385
aS'2'
aS'2'
aS'2'
aS'2'
aS'2'
aS'1'
aS'1'
aS'1'
aS'1'
aS'1'
aa(lp386
S'X'
aS'X'
aS'X'
aS'X'
aS'X'
aS'X'
aS'X'
aS'X'
aS'X'
aS'X'
aS'X'
aS'X'
aS'X'
aS'3_0'
p387
aS'2'
aS'2'
aS'2'
aS'2'
aS'2'
aS'1'
aa(lp388
S'X'
aS'X'
aS'X'
aS'X'
aS'X'
aS'X'
aS'X'
aS'X'
aS'X'
aS'X'
aS'X'
aS'X'
aS'X'
aS'X'
aS'X'
aS'X'
aS'X'
aS'3_0'
p389
aS'2'
aS'2'
aa(lp390
S'X'
aS'X'
aS'X'
aS'X'
aS'X'
aS'X'
aS'X'
aS'X'
aS'X'
aS'X'
aS'X'
aS'X'
aS'X'
aS'X'
aS'X'
aS'X'
aS'X'
aS'X'
aS'X'
aS'3_0'
p391
aa(lp392
S'X'
aS'X'
aS'X'
aS'X'
aS'X'
aS'X'
aS'X'
aS'X'
aS'X'
aS'X'
aS'X'
aS'X'
aS'X'
aS'X'
aS'X'
aS'X'
aS'X'
aS'X'
aS'X'
aS'3_0'
p393
aa(lp394
S'X'
aS'X'
aS'X'
aS'X'
aS'X'
aS'X'
aS'X'
aS'X'
aS'X'
aS'X'
aS'X'
aS'X'
aS'X'
aS'X'
aS'X'
aS'X'
aS'X'
aS'X'
aS'X'
aS'3_0'
p395
aa(lp396
S'X'
aS'X'
aS'X'
aS'X'
aS'X'
aS'X'
aS'X'
aS'X'
aS'X'
aS'X'
aS'X'
aS'X'
aS'X'
aS'X'
aS'X'
aS'X'
aS'X'
aS'X'
aS'X'
aS'3_0'
p397
aa(lp398
S'X'
aS'X'
aS'X'
aS'X'
aS'X'
aS'X'
aS'X'
aS'X'
aS'X'
aS'X'
aS'X'
aS'X'
aS'X'
aS'X'
aS'X'
aS'X'
aS'X'
aS'X'
aS'X'
aS'3_0'
p399
aa(lp400
S'X'
aS'X'
aS'X'
aS'X'
aS'X'
aS'X'
aS'X'
aS'X'
aS'X'
aS'X'
aS'X'
aS'X'
aS'X'
aS'X'
aS'X'
aS'X'
aS'X'
aS'X'
aS'X'
aS'3_0'
p401
aa(lp402
S'X'
aS'X'
aS'X'
aS'X'
aS'X'
aS'X'
aS'X'
aS'X'
aS'X'
aS'X'
aS'X'
aS'X'
aS'X'
aS'X'
aS'X'
aS'X'
aS'X'
aS'X'
aS'X'
aS'3_0'
p403
aa(lp404
S'X'
aS'X'
aS'X'
aS'X'
aS'X'
aS'X'
aS'X'
aS'X'
aS'X'
aS'X'
aS'X'
aS'X'
aS'X'
aS'X'
aS'X'
aS'X'
aS'X'
aS'X'
aS'X'
aS'3_0'
p405
aa(lp406
S'X'
aS'X'
aS'X'
aS'X'
aS'X'
aS'X'
aS'X'
aS'X'
aS'X'
aS'X'
aS'X'
aS'X'
aS'X'
aS'X'
aS'X'
aS'X'
aS'X'
aS'X'
aS'X'
aS'3_0'
p407
aa(lp408
S'3_0'
p409
aS'3_0'
p410
aS'3_0'
p411
aS'3_0'
p412
aS'3_0'
p413
aS'3_0'
p414
aS'3_0'
p415
aS'3_0'
p416
aS'3_0'
p417
aS'3_0'
p418
aS'3_0'
p419
aS'3_0'
p420
aS'3_0'
p421
aS'3_0'
p422
aS'3_0'
p423
aS'3_0'
p424
aS'3_0'
p425
aS'3_0'
p426
aS'3_0'
p427
aS'3_0'
p428
aasI5
(lp429
(lp430
S'@'
aS'@'
aS'@'
aS'@'
aS'@'
aS'@'
aS'@'
aS'@'
aS'@'
aS'@'
aS'@'
aS'@'
aS'@'
aS'@'
aS'@'
aS'@'
aS'@'
aS'@'
aS'@'
aS'@'
aa(lp431
S'@'
aS'@'
aS'@'
aS'@'
aS'@'
aS'@'
aS'@'
aS'@'
aS'@'
aS'@'
aS'@'
aS'@'
aS'@'
aS'@'
aS'@'
aS'@'
aS'@'
aS'@'
aS'@'
aS'@'
aa(lp432
S'@'
aS'@'
aS'@'
aS'@'
aS'@'
aS'@'
aS'@'
aS'@'
aS'@'
aS'@'
aS'@'
aS'@'
aS'@'
aS'@'
aS'@'
aS'@'
aS'@'
aS'@'
aS'@'
aS'@'
aa(lp433
S'@'
aS'@'
aS'@'
aS'@'
aS'@'
aS'@'
aS'@'
aS'@'
aS'@'
aS'@'
aS'@'
aS'@'
aS'@'
aS'@'
aS'@'
aS'@'
aS'@'
aS'@'
aS'@'
aS'@'
aa(lp434
S'@'
aS'@'
aS'@'
aS'@'
aS'@'
aS'@'
aS'@'
aS'@'
aS'@'
aS'@'
aS'@'
aS'@'
aS'@'
aS'@'
aS'@'
aS'@'
aS'@'
aS'@'
aS'@'
aS'@'
aa(lp435
S'@'
aS'@'
aS'@'
aS'@'
aS'@'
aS'@'
aS'@'
aS'@'
aS'@'
aS'@'
aS'@'
aS'@'
aS'@'
aS'@'
aS'@'
aS'@'
aS'@'
aS'@'
aS'@'
aS'@'
aa(lp436
S'@'
aS'@'
aS'@'
aS'@'
aS'@'
aS'@'
aS'@'
aS'@'
aS'@'
aS'@'
aS'@'
aS'@'
aS'@'
aS'@'
aS'@'
aS'@'
aS'@'
aS'@'
aS'@'
aS'@'
aa(lp437
S'@'
aS'@'
aS'@'
aS'0_3'
p438
aS'0_2'
p439
aS'0_2'
p440
aS'0_2'
p441
aS'0_2'
p442
aS'0_2'
p443
aS'0_2'
p444
aS'0_2'
p445
aS'@'
aS'@'
aS'@'
aS'@'
aS'@'
aS'@'
aS'@'
aS'@'
aS'@'
aa(lp446
S'0_3'
p447
aS'0_2'
p448
aS'0_2'
p449
aS'0_0'
p450
aS'0_0'
p451
aS'0_0'
p452
aS'0_0'
p453
aS'X'
aS'X'
aS'X'
aS'0_0'
p454
aS'0_2'
p455
aS'0_2'
p456
aS'0_2'
p457
aS'@'
aS'@'
aS'@'
aS'@'
aS'@'
aS'@'
aa(lp458
S'0_1'
p459
aS'0_0'
p460
aS'0_0'
p461
aS'0_0'
p462
aS'X'
aS'X'
aS'X'
aS'X'
aS'X'
aS'X'
aS'X'
aS'X'
aS'X'
aS'0_0'
p463
aS'0_2'
p464
aS'0_2'
p465
aS'0_2'
p466
aS'0_2'
p467
aS'@'
aS'@'
aa(lp468
S'0_0'
p469
aS'0_0'
p470
aS'X'
aS'X'
aS'X'
aS'X'
aS'X'
aS'X'
aS'X'
aS'X'
aS'X'
aS'X'
aS'X'
aS'X'
aS'X'
aS'X'
aS'X'
aS'X'
aS'0_2'
p471
aS'0_2'
p472
aa(lp473
S'X'
aS'X'
aS'X'
aS'X'
aS'X'
aS'X'
aS'X'
aS'X'
aS'X'
aS'X'
aS'X'
aS'X'
aS'X'
aS'X'
aS'X'
aS'X'
aS'X'
aS'X'
aS'X'
aS'3_0'
p474
aa(lp475
S'X'
aS'X'
aS'X'
aS'X'
aS'X'
aS'X'
aS'X'
aS'X'
aS'X'
aS'X'
aS'X'
aS'X'
aS'X'
aS'X'
aS'X'
aS'X'
aS'X'
aS'X'
aS'X'
aS'3_0'
p476
aa(lp477
S'X'
aS'X'
aS'X'
aS'X'
aS'X'
aS'X'
aS'X'
aS'X'
aS'X'
aS'X'
aS'X'
aS'X'
aS'X'
aS'X'
aS'X'
aS'X'
aS'X'
aS'X'
aS'X'
aS'3_0'
p478
aa(lp479
S'X'
aS'X'
aS'X'
aS'X'
aS'X'
aS'X'
aS'X'
aS'X'
aS'X'
aS'X'
aS'X'
aS'X'
aS'X'
aS'X'
aS'X'
aS'X'
aS'X'
aS'X'
aS'X'
aS'3_0'
p480
aa(lp481
S'X'
aS'X'
aS'X'
aS'X'
aS'X'
aS'X'
aS'X'
aS'X'
aS'X'
aS'X'
aS'X'
aS'X'
aS'X'
aS'X'
aS'X'
aS'X'
aS'X'
aS'X'
aS'X'
aS'3_0'
p482
aa(lp483
S'X'
aS'X'
aS'X'
aS'X'
aS'X'
aS'X'
aS'X'
aS'X'
aS'X'
aS'X'
aS'X'
aS'X'
aS'X'
aS'X'
aS'X'
aS'X'
aS'X'
aS'X'
aS'X'
aS'3_0'
p484
aa(lp485
S'X'
aS'X'
aS'X'
aS'X'
aS'X'
aS'X'
aS'X'
aS'X'
aS'X'
aS'X'
aS'X'
aS'X'
aS'X'
aS'X'
aS'X'
aS'X'
aS'X'
aS'X'
aS'X'
aS'3_0'
p486
aa(lp487
S'X'
aS'X'
aS'X'
aS'X'
aS'X'
aS'X'
aS'X'
aS'X'
aS'X'
aS'X'
aS'X'
aS'X'
aS'X'
aS'X'
aS'X'
aS'X'
aS'X'
aS'X'
aS'X'
aS'3_0'
p488
aa(lp489
S'3_0'
p490
aS'3_0'
p491
aS'3_0'
p492
aS'3_0'
p493
aS'3_0'
p494
aS'3_0'
p495
aS'3_0'
p496
aS'3_0'
p497
aS'3_0'
p498
aS'3_0'
p499
aS'3_0'
p500
aS'3_0'
p501
aS'3_0'
p502
aS'3_0'
p503
aS'3_0'
p504
aS'3_0'
p505
aS'3_0'
p506
aS'3_0'
p507
aS'3_0'
p508
aS'3_0'
p509
aasI6
(lp510
(lp511
S'@'
aS'@'
aS'@'
aS'@'
aS'@'
aS'@'
aS'@'
aS'@'
aS'@'
aS'@'
aS'@'
aS'@'
aS'@'
aS'@'
aS'@'
aS'@'
aS'@'
aS'@'
aS'@'
aS'@'
aa(lp512
S'@'
aS'@'
aS'@'
aS'@'
aS'@'
aS'@'
aS'@'
aS'@'
aS'@'
aS'@'
aS'@'
aS'@'
aS'@'
aS'@'
aS'@'
aS'@'
aS'@'
aS'@'
aS'@'
aS'@'
aa(lp513
S'@'
aS'@'
aS'@'
aS'@'
aS'@'
aS'@'
aS'@'
aS'@'
aS'@'
aS'@'
aS'@'
aS'@'
aS'@'
aS'@'
aS'@'
aS'@'
aS'@'
aS'@'
aS'@'
aS'@'
aa(lp514
S'@'
aS'@'
aS'@'
aS'@'
aS'@'
aS'@'
aS'@'
aS'@'
aS'@'
aS'@'
aS'@'
aS'@'
aS'@'
aS'@'
aS'@'
aS'@'
aS'@'
aS'@'
aS'@'
aS'@'
aa(lp515
S'@'
aS'@'
aS'@'
aS'@'
aS'@'
aS'@'
aS'@'
aS'@'
aS'@'
aS'@'
aS'@'
aS'@'
aS'@'
aS'@'
aS'@'
aS'@'
aS'@'
aS'@'
aS'@'
aS'@'
aa(lp516
S'@'
aS'@'
aS'@'
aS'@'
aS'@'
aS'@'
aS'@'
aS'@'
aS'@'
aS'@'
aS'@'
aS'@'
aS'@'
aS'@'
aS'@'
aS'@'
aS'@'
aS'@'
aS'@'
aS'@'
aa(lp517
S'@'
aS'@'
aS'@'
aS'@'
aS'@'
aS'@'
aS'@'
aS'@'
aS'@'
aS'@'
aS'@'
aS'@'
aS'@'
aS'@'
aS'@'
aS'@'
aS'@'
aS'@'
aS'@'
aS'@'
aa(lp518
S'@'
aS'@'
aS'@'
aS'@'
aS'@'
aS'@'
aS'@'
aS'@'
aS'@'
aS'@'
aS'@'
aS'@'
aS'@'
aS'@'
aS'@'
aS'@'
aS'@'
aS'@'
aS'@'
aS'@'
aa(lp519
S'@'
aS'@'
aS'@'
aS'@'
aS'@'
aS'@'
aS'@'
aS'0_3'
p520
aS'0_2'
p521
aS'0_2'
p522
aS'@'
aS'@'
aS'@'
aS'@'
aS'@'
aS'@'
aS'@'
aS'@'
aS'@'
aS'@'
aa(lp523
S'@'
aS'@'
aS'@'
aS'@'
aS'0_3'
p524
aS'0_2'
p525
aS'0_2'
p526
aS'0_0'
p527
aS'0_0'
p528
aS'0_0'
p529
aS'0_2'
p530
aS'0_2'
p531
aS'0_2'
p532
aS'@'
aS'@'
aS'@'
aS'@'
aS'@'
aS'@'
aS'@'
aa(lp533
S'@'
aS'@'
aS'0_3'
p534
aS'0_2'
p535
aS'0_0'
p536
aS'0_0'
p537
aS'X'
aS'X'
aS'X'
aS'X'
aS'X'
aS'X'
aS'X'
aS'0_2'
p538
aS'0_2'
p539
aS'0_2'
p540
aS'0_2'
p541
aS'0_2'
p542
aS'@'
aS'@'
aa(lp543
S'0_2'
p544
aS'0_2'
p545
aS'0_0'
p546
aS'0_0'
p547
aS'X'
aS'X'
aS'X'
aS'X'
aS'X'
aS'X'
aS'X'
aS'X'
aS'X'
aS'X'
aS'X'
aS'X'
aS'X'
aS'0_0'
p548
aS'0_2'
p549
aS'0_2'
p550
aa(lp551
S'0_0'
p552
aS'0_0'
p553
aS'0_0'
p554
aS'X'
aS'X'
aS'X'
aS'X'
aS'X'
aS'X'
aS'X'
aS'X'
aS'X'
aS'X'
aS'X'
aS'X'
aS'X'
aS'X'
aS'X'
aS'X'
aS'0_0'
p555
aa(lp556
S'X'
aS'X'
aS'X'
aS'X'
aS'X'
aS'X'
aS'X'
aS'X'
aS'X'
aS'X'
aS'X'
aS'X'
aS'X'
aS'X'
aS'X'
aS'X'
aS'X'
aS'X'
aS'X'
aS'3_0'
p557
aa(lp558
S'X'
aS'X'
aS'X'
aS'X'
aS'X'
aS'X'
aS'X'
aS'X'
aS'X'
aS'X'
aS'X'
aS'X'
aS'X'
aS'X'
aS'X'
aS'X'
aS'X'
aS'X'
aS'X'
aS'3_0'
p559
aa(lp560
S'X'
aS'X'
aS'X'
aS'X'
aS'X'
aS'X'
aS'X'
aS'X'
aS'X'
aS'X'
aS'X'
aS'X'
aS'X'
aS'X'
aS'X'
aS'X'
aS'X'
aS'X'
aS'X'
aS'3_0'
p561
aa(lp562
S'X'
aS'X'
aS'X'
aS'X'
aS'X'
aS'X'
aS'X'
aS'X'
aS'X'
aS'X'
aS'X'
aS'X'
aS'X'
aS'X'
aS'X'
aS'X'
aS'X'
aS'X'
aS'X'
aS'3_0'
p563
aa(lp564
S'X'
aS'X'
aS'X'
aS'X'
aS'X'
aS'X'
aS'X'
aS'X'
aS'X'
aS'X'
aS'X'
aS'X'
aS'X'
aS'X'
aS'X'
aS'X'
aS'X'
aS'X'
aS'X'
aS'3_0'
p565
aa(lp566
S'X'
aS'X'
aS'X'
aS'X'
aS'X'
aS'X'
aS'X'
aS'X'
aS'X'
aS'X'
aS'X'
aS'X'
aS'X'
aS'X'
aS'X'
aS'X'
aS'X'
aS'X'
aS'X'
aS'3_0'
p567
aa(lp568
S'3_0'
p569
aS'3_0'
p570
aS'3_0'
p571
aS'3_0'
p572
aS'3_0'
p573
aS'3_0'
p574
aS'3_0'
p575
aS'3_0'
p576
aS'3_0'
p577
aS'3_0'
p578
aS'3_0'
p579
aS'3_0'
p580
aS'3_0'
p581
aS'3_0'
p582
aS'3_0'
p583
aS'3_0'
p584
aS'3_0'
p585
aS'3_0'
p586
aS'3_0'
p587
aS'3_0'
p588
aasI7
(lp589
(lp590
S'@'
aS'@'
aS'@'
aS'@'
aS'@'
aS'@'
aS'@'
aS'@'
aS'@'
aS'@'
aS'@'
aS'@'
aS'@'
aS'@'
aS'@'
aS'@'
aS'@'
aS'@'
aS'@'
aS'@'
aa(lp591
S'@'
aS'@'
aS'@'
aS'@'
aS'@'
aS'@'
aS'@'
aS'@'
aS'@'
aS'@'
aS'@'
aS'@'
aS'@'
aS'@'
aS'@'
aS'@'
aS'@'
aS'@'
aS'@'
aS'@'
aa(lp592
S'@'
aS'@'
aS'@'
aS'@'
aS'@'
aS'@'
aS'@'
aS'@'
aS'@'
aS'@'
aS'@'
aS'@'
aS'@'
aS'@'
aS'@'
aS'@'
aS'@'
aS'@'
aS'@'
aS'@'
aa(lp593
S'@'
aS'@'
aS'@'
aS'@'
aS'@'
aS'@'
aS'@'
aS'@'
aS'@'
aS'@'
aS'@'
aS'@'
aS'@'
aS'@'
aS'@'
aS'@'
aS'@'
aS'@'
aS'@'
aS'@'
aa(lp594
S'@'
aS'@'
aS'@'
aS'@'
aS'@'
aS'@'
aS'@'
aS'@'
aS'@'
aS'@'
aS'@'
aS'@'
aS'@'
aS'@'
aS'@'
aS'@'
aS'@'
aS'@'
aS'@'
aS'@'
aa(lp595
S'@'
aS'@'
aS'@'
aS'@'
aS'@'
aS'@'
aS'@'
aS'@'
aS'@'
aS'@'
aS'@'
aS'@'
aS'@'
aS'@'
aS'@'
aS'@'
aS'@'
aS'@'
aS'@'
aS'@'
aa(lp596
S'@'
aS'@'
aS'@'
aS'@'
aS'@'
aS'@'
aS'@'
aS'@'
aS'@'
aS'@'
aS'@'
aS'@'
aS'@'
aS'@'
aS'@'
aS'@'
aS'@'
aS'@'
aS'@'
aS'@'
aa(lp597
S'@'
aS'@'
aS'@'
aS'@'
aS'@'
aS'@'
aS'@'
aS'@'
aS'@'
aS'@'
aS'@'
aS'@'
aS'@'
aS'@'
aS'@'
aS'@'
aS'@'
aS'@'
aS'@'
aS'@'
aa(lp598
S'@'
aS'@'
aS'@'
aS'@'
aS'@'
aS'@'
aS'@'
aS'@'
aS'@'
aS'@'
aS'@'
aS'@'
aS'@'
aS'@'
aS'@'
aS'@'
aS'@'
aS'@'
aS'@'
aS'@'
aa(lp599
S'@'
aS'@'
aS'@'
aS'@'
aS'@'
aS'@'
aS'@'
aS'@'
aS'@'
aS'@'
aS'@'
aS'@'
aS'@'
aS'@'
aS'@'
aS'@'
aS'@'
aS'@'
aS'@'
aS'@'
aa(lp600
S'@'
aS'@'
aS'@'
aS'@'
aS'@'
aS'@'
aS'0_3'
p601
aS'0_2'
p602
aS'0_2'
p603
aS'0_2'
p604
aS'0_2'
p605
aS'0_2'
p606
aS'0_2'
p607
aS'@'
aS'@'
aS'@'
aS'@'
aS'@'
aS'@'
aS'@'
aa(lp608
S'@'
aS'@'
aS'@'
aS'@'
aS'0_3'
p609
aS'0_2'
p610
aS'0_0'
p611
aS'0_0'
p612
aS'X'
aS'X'
aS'X'
aS'X'
aS'0_0'
p613
aS'0_2'
p614
aS'0_2'
p615
aS'0_2'
p616
aS'0_2'
p617
aS'@'
aS'@'
aS'@'
aa(lp618
S'@'
aS'@'
aS'@'
aS'0_3'
p619
aS'0_0'
p620
aS'0_0'
p621
aS'X'
aS'X'
aS'X'
aS'X'
aS'X'
aS'X'
aS'X'
aS'X'
aS'X'
aS'0_0'
p622
aS'0_0'
p623
aS'0_2'
p624
aS'0_2'
p625
aS'@'
aa(lp626
S'0_2'
p627
aS'0_2'
p628
aS'0_2'
p629
aS'0_0'
p630
aS'0_0'
p631
aS'X'
aS'X'
aS'X'
aS'X'
aS'X'
aS'X'
aS'X'
aS'X'
aS'X'
aS'X'
aS'X'
aS'X'
aS'X'
aS'0_0'
p632
aS'0_2'
p633
aa(lp634
S'0_0'
p635
aS'0_0'
p636
aS'0_0'
p637
aS'0_0'
p638
aS'X'
aS'X'
aS'X'
aS'X'
aS'X'
aS'X'
aS'X'
aS'X'
aS'X'
aS'X'
aS'X'
aS'X'
aS'X'
aS'X'
aS'X'
aS'0_0'
p639
aa(lp640
S'0_0'
p641
aS'0_0'
p642
aS'0_0'
p643
aS'0_0'
p644
aS'X'
aS'X'
aS'X'
aS'X'
aS'X'
aS'X'
aS'X'
aS'X'
aS'X'
aS'X'
aS'X'
aS'X'
aS'X'
aS'X'
aS'X'
aS'3_0'
p645
aa(lp646
S'0_0'
p647
aS'0_0'
p648
aS'0_0'
p649
aS'0_0'
p650
aS'X'
aS'X'
aS'X'
aS'X'
aS'X'
aS'X'
aS'X'
aS'X'
aS'X'
aS'X'
aS'X'
aS'X'
aS'X'
aS'X'
aS'X'
aS'3_0'
p651
aa(lp652
S'0_0'
p653
aS'0_0'
p654
aS'0_0'
p655
aS'0_0'
p656
aS'X'
aS'X'
aS'X'
aS'X'
aS'X'
aS'X'
aS'X'
aS'X'
aS'X'
aS'X'
aS'X'
aS'X'
aS'X'
aS'X'
aS'X'
aS'3_0'
p657
aa(lp658
S'0_0'
p659
aS'0_0'
p660
aS'0_0'
p661
aS'0_0'
p662
aS'X'
aS'X'
aS'X'
aS'X'
aS'X'
aS'X'
aS'X'
aS'X'
aS'X'
aS'X'
aS'X'
aS'X'
aS'X'
aS'X'
aS'X'
aS'3_0'
p663
aa(lp664
S'0_0'
p665
aS'0_0'
p666
aS'0_0'
p667
aS'0_0'
p668
aS'3_0'
p669
aS'3_0'
p670
aS'3_0'
p671
aS'3_0'
p672
aS'3_0'
p673
aS'3_0'
p674
aS'3_0'
p675
aS'3_0'
p676
aS'3_0'
p677
aS'3_0'
p678
aS'3_0'
p679
aS'3_0'
p680
aS'3_0'
p681
aS'3_0'
p682
aS'3_0'
p683
aS'3_0'
p684
aasI8
(lp685
(lp686
S'@'
aS'@'
aS'@'
aS'@'
aS'@'
aS'@'
aS'@'
aS'@'
aS'@'
aS'@'
aS'@'
aS'@'
aS'@'
aS'@'
aS'@'
aS'@'
aS'@'
aS'@'
aS'@'
aS'@'
aa(lp687
S'@'
aS'@'
aS'@'
aS'@'
aS'@'
aS'@'
aS'@'
aS'@'
aS'@'
aS'@'
aS'@'
aS'@'
aS'@'
aS'@'
aS'@'
aS'@'
aS'@'
aS'@'
aS'@'
aS'@'
aa(lp688
S'@'
aS'@'
aS'@'
aS'@'
aS'@'
aS'@'
aS'@'
aS'@'
aS'@'
aS'@'
aS'@'
aS'@'
aS'@'
aS'@'
aS'@'
aS'@'
aS'@'
aS'@'
aS'@'
aS'@'
aa(lp689
S'@'
aS'@'
aS'@'
aS'@'
aS'@'
aS'@'
aS'@'
aS'@'
aS'@'
aS'@'
aS'@'
aS'@'
aS'@'
aS'@'
aS'@'
aS'@'
aS'@'
aS'@'
aS'@'
aS'@'
aa(lp690
S'@'
aS'@'
aS'@'
aS'@'
aS'@'
aS'@'
aS'@'
aS'@'
aS'@'
aS'@'
aS'@'
aS'@'
aS'@'
aS'@'
aS'@'
aS'@'
aS'@'
aS'@'
aS'@'
aS'@'
aa(lp691
S'@'
aS'@'
aS'@'
aS'@'
aS'@'
aS'@'
aS'@'
aS'@'
aS'@'
aS'@'
aS'@'
aS'@'
aS'@'
aS'@'
aS'@'
aS'@'
aS'@'
aS'@'
aS'@'
aS'@'
aa(lp692
S'@'
aS'@'
aS'@'
aS'@'
aS'@'
aS'@'
aS'@'
aS'@'
aS'@'
aS'@'
aS'@'
aS'@'
aS'@'
aS'@'
aS'@'
aS'@'
aS'@'
aS'@'
aS'@'
aS'@'
aa(lp693
S'@'
aS'@'
aS'@'
aS'@'
aS'@'
aS'@'
aS'@'
aS'@'
aS'@'
aS'@'
aS'@'
aS'@'
aS'@'
aS'@'
aS'@'
aS'@'
aS'@'
aS'@'
aS'@'
aS'@'
aa(lp694
S'@'
aS'@'
aS'@'
aS'@'
aS'@'
aS'@'
aS'@'
aS'@'
aS'@'
aS'@'
aS'@'
aS'@'
aS'@'
aS'@'
aS'@'
aS'@'
aS'@'
aS'@'
aS'@'
aS'@'
aa(lp695
S'@'
aS'@'
aS'@'
aS'@'
aS'@'
aS'@'
aS'@'
aS'@'
aS'@'
aS'@'
aS'@'
aS'@'
aS'@'
aS'@'
aS'@'
aS'@'
aS'@'
aS'@'
aS'@'
aS'@'
aa(lp696
S'@'
aS'@'
aS'@'
aS'@'
aS'@'
aS'@'
aS'@'
aS'@'
aS'@'
aS'@'
aS'@'
aS'@'
aS'@'
aS'@'
aS'@'
aS'@'
aS'@'
aS'@'
aS'@'
aS'@'
aa(lp697
S'@'
aS'@'
aS'@'
aS'@'
aS'@'
aS'@'
aS'@'
aS'@'
aS'0_3'
p698
aS'0_2'
p699
aS'0_2'
p700
aS'0_2'
p701
aS'@'
aS'@'
aS'@'
aS'@'
aS'@'
aS'@'
aS'@'
aS'@'
aa(lp702
S'@'
aS'@'
aS'@'
aS'@'
aS'@'
aS'@'
aS'0_3'
p703
aS'0_2'
p704
aS'0_0'
p705
aS'0_0'
p706
aS'0_0'
p707
aS'0_0'
p708
aS'0_2'
p709
aS'0_2'
p710
aS'0_2'
p711
aS'@'
aS'@'
aS'@'
aS'@'
aS'@'
aa(lp712
S'@'
aS'@'
aS'@'
aS'@'
aS'@'
aS'0_3'
p713
aS'0_0'
p714
aS'0_0'
p715
aS'X'
aS'X'
aS'X'
aS'X'
aS'X'
aS'0_0'
p716
aS'0_0'
p717
aS'0_2'
p718
aS'0_2'
p719
aS'0_2'
p720
aS'@'
aS'@'
aa(lp721
S'@'
aS'@'
aS'@'
aS'@'
aS'0_3'
p722
aS'0_0'
p723
aS'0_0'
p724
aS'X'
aS'X'
aS'X'
aS'X'
aS'X'
aS'X'
aS'X'
aS'X'
aS'0_0'
p725
aS'0_0'
p726
aS'0_0'
p727
aS'0_2'
p728
aS'@'
aa(lp729
S'@'
aS'@'
aS'@'
aS'@'
aS'0_1'
p730
aS'0_0'
p731
aS'0_0'
p732
aS'X'
aS'X'
aS'X'
aS'X'
aS'X'
aS'X'
aS'X'
aS'X'
aS'X'
aS'X'
aS'X'
aS'0_0'
p733
aS'0_2'
p734
aa(lp735
S'@'
aS'@'
aS'@'
aS'@'
aS'0_1'
p736
aS'0_0'
p737
aS'X'
aS'X'
aS'X'
aS'X'
aS'X'
aS'X'
aS'X'
aS'X'
aS'X'
aS'X'
aS'X'
aS'X'
aS'0_0'
p738
aS'0_0'
p739
aa(lp740
S'@'
aS'@'
aS'@'
aS'@'
aS'0_1'
p741
aS'0_0'
p742
aS'0_0'
p743
aS'X'
aS'X'
aS'X'
aS'X'
aS'X'
aS'X'
aS'X'
aS'X'
aS'X'
aS'X'
aS'X'
aS'0_0'
p744
aS'0_0'
p745
aa(lp746
S'@'
aS'@'
aS'@'
aS'@'
aS'0_1'
p747
aS'0_0'
p748
aS'0_0'
p749
aS'X'
aS'X'
aS'X'
aS'X'
aS'X'
aS'X'
aS'X'
aS'X'
aS'X'
aS'X'
aS'X'
aS'X'
aS'0_0'
p750
aa(lp751
S'@'
aS'@'
aS'@'
aS'@'
aS'0_1'
p752
aS'0_0'
p753
aS'0_0'
p754
aS'3_0'
p755
aS'3_0'
p756
aS'3_0'
p757
aS'3_0'
p758
aS'3_0'
p759
aS'3_0'
p760
aS'3_0'
p761
aS'3_0'
p762
aS'3_0'
p763
aS'3_0'
p764
aS'3_0'
p765
aS'3_0'
p766
aS'0_0'
p767
aasI9
(lp768
(lp769
S'@'
aS'@'
aS'@'
aS'@'
aS'@'
aS'@'
aS'@'
aS'@'
aS'@'
aS'@'
aS'@'
aS'@'
aS'@'
aS'@'
aS'@'
aS'@'
aS'@'
aS'@'
aS'@'
aS'@'
aa(lp770
S'@'
aS'@'
aS'@'
aS'@'
aS'@'
aS'@'
aS'@'
aS'@'
aS'@'
aS'@'
aS'@'
aS'@'
aS'@'
aS'@'
aS'@'
aS'@'
aS'@'
aS'@'
aS'@'
aS'@'
aa(lp771
S'@'
aS'@'
aS'@'
aS'@'
aS'@'
aS'@'
aS'@'
aS'@'
aS'@'
aS'@'
aS'@'
aS'@'
aS'@'
aS'@'
aS'@'
aS'@'
aS'@'
aS'@'
aS'@'
aS'@'
aa(lp772
S'@'
aS'@'
aS'@'
aS'@'
aS'@'
aS'@'
aS'@'
aS'@'
aS'@'
aS'@'
aS'@'
aS'@'
aS'@'
aS'@'
aS'@'
aS'@'
aS'@'
aS'@'
aS'@'
aS'@'
aa(lp773
S'@'
aS'@'
aS'@'
aS'@'
aS'@'
aS'@'
aS'@'
aS'@'
aS'@'
aS'@'
aS'@'
aS'@'
aS'@'
aS'@'
aS'@'
aS'@'
aS'@'
aS'@'
aS'@'
aS'@'
aa(lp774
S'@'
aS'@'
aS'@'
aS'@'
aS'@'
aS'@'
aS'@'
aS'@'
aS'@'
aS'@'
aS'@'
aS'@'
aS'@'
aS'@'
aS'@'
aS'@'
aS'@'
aS'@'
aS'@'
aS'@'
aa(lp775
S'@'
aS'@'
aS'@'
aS'@'
aS'@'
aS'@'
aS'@'
aS'@'
aS'@'
aS'@'
aS'@'
aS'@'
aS'@'
aS'@'
aS'@'
aS'@'
aS'@'
aS'@'
aS'@'
aS'@'
aa(lp776
S'@'
aS'@'
aS'@'
aS'@'
aS'@'
aS'@'
aS'@'
aS'@'
aS'@'
aS'@'
aS'@'
aS'@'
aS'@'
aS'@'
aS'@'
aS'@'
aS'@'
aS'@'
aS'@'
aS'@'
aa(lp777
S'@'
aS'@'
aS'@'
aS'@'
aS'@'
aS'@'
aS'@'
aS'@'
aS'@'
aS'@'
aS'@'
aS'@'
aS'@'
aS'@'
aS'@'
aS'@'
aS'@'
aS'@'
aS'@'
aS'@'
aa(lp778
S'@'
aS'@'
aS'@'
aS'@'
aS'@'
aS'@'
aS'@'
aS'@'
aS'@'
aS'@'
aS'@'
aS'@'
aS'@'
aS'@'
aS'@'
aS'@'
aS'@'
aS'@'
aS'@'
aS'@'
aa(lp779
S'@'
aS'@'
aS'@'
aS'@'
aS'@'
aS'@'
aS'@'
aS'@'
aS'@'
aS'@'
aS'@'
aS'@'
aS'@'
aS'@'
aS'@'
aS'@'
aS'@'
aS'@'
aS'@'
aS'@'
aa(lp780
S'@'
aS'@'
aS'@'
aS'@'
aS'@'
aS'@'
aS'@'
aS'@'
aS'@'
aS'@'
aS'@'
aS'@'
aS'@'
aS'@'
aS'@'
aS'@'
aS'@'
aS'@'
aS'@'
aS'@'
aa(lp781
S'@'
aS'@'
aS'@'
aS'@'
aS'@'
aS'@'
aS'@'
aS'@'
aS'@'
aS'@'
aS'@'
aS'@'
aS'@'
aS'@'
aS'@'
aS'@'
aS'@'
aS'@'
aS'@'
aS'@'
aa(lp782
S'@'
aS'@'
aS'@'
aS'@'
aS'@'
aS'@'
aS'@'
aS'@'
aS'0_3'
p783
aS'0_2'
p784
aS'0_2'
p785
aS'0_2'
p786
aS'0_2'
p787
aS'@'
aS'@'
aS'@'
aS'@'
aS'@'
aS'@'
aS'@'
aa(lp788
S'@'
aS'@'
aS'@'
aS'@'
aS'@'
aS'@'
aS'@'
aS'0_3'
p789
aS'0_0'
p790
aS'0_0'
p791
aS'0_0'
p792
aS'0_0'
p793
aS'0_0'
p794
aS'0_2'
p795
aS'0_2'
p796
aS'@'
aS'@'
aS'@'
aS'@'
aS'@'
aa(lp797
S'@'
aS'@'
aS'@'
aS'@'
aS'@'
aS'@'
aS'@'
aS'0_1'
p798
aS'0_0'
p799
aS'0_0'
p800
aS'0_0'
p801
aS'0_0'
p802
aS'0_0'
p803
aS'0_0'
p804
aS'0_0'
p805
aS'0_2'
p806
aS'0_2'
p807
aS'0_2'
p808
aS'@'
aS'@'
aa(lp809
S'@'
aS'@'
aS'@'
aS'@'
aS'@'
aS'@'
aS'0_3'
p810
aS'0_0'
p811
aS'0_0'
p812
aS'0_0'
p813
aS'0_0'
p814
aS'0_0'
p815
aS'0_0'
p816
aS'0_0'
p817
aS'0_0'
p818
aS'0_0'
p819
aS'0_0'
p820
aS'0_0'
p821
aS'@'
aS'@'
aa(lp822
S'@'
aS'@'
aS'@'
aS'@'
aS'@'
aS'@'
aS'@'
aS'0_1'
p823
aS'0_0'
p824
aS'0_0'
p825
aS'0_0'
p826
aS'0_0'
p827
aS'0_0'
p828
aS'0_0'
p829
aS'0_0'
p830
aS'0_0'
p831
aS'0_0'
p832
aS'0_0'
p833
aS'@'
aS'@'
aa(lp834
S'@'
aS'@'
aS'@'
aS'@'
aS'@'
aS'@'
aS'@'
aS'0_1'
p835
aS'0_0'
p836
aS'0_0'
p837
aS'0_0'
p838
aS'0_0'
p839
aS'0_0'
p840
aS'0_0'
p841
aS'0_0'
p842
aS'0_0'
p843
aS'0_0'
p844
aS'0_0'
p845
aS'0_2'
p846
aS'@'
aa(lp847
S'@'
aS'@'
aS'@'
aS'@'
aS'@'
aS'@'
aS'@'
aS'0_1'
p848
aS'0_0'
p849
aS'0_0'
p850
aS'0_0'
p851
aS'0_0'
p852
aS'3_0'
p853
aS'0_0'
p854
aS'0_0'
p855
aS'0_0'
p856
aS'0_0'
p857
aS'0_0'
p858
aS'0_0'
p859
aS'@'
aasI10
(lp860
(lp861
S'@'
aS'@'
aS'@'
aS'@'
aS'@'
aS'@'
aS'@'
aS'@'
aS'@'
aS'@'
aS'@'
aS'@'
aS'@'
aS'@'
aS'@'
aS'@'
aS'@'
aS'@'
aS'@'
aS'@'
aa(lp862
S'@'
aS'@'
aS'@'
aS'@'
aS'@'
aS'@'
aS'@'
aS'@'
aS'@'
aS'@'
aS'@'
aS'@'
aS'@'
aS'@'
aS'@'
aS'@'
aS'@'
aS'@'
aS'@'
aS'@'
aa(lp863
S'@'
aS'@'
aS'@'
aS'@'
aS'@'
aS'@'
aS'@'
aS'@'
aS'@'
aS'@'
aS'@'
aS'@'
aS'@'
aS'@'
aS'@'
aS'@'
aS'@'
aS'@'
aS'@'
aS'@'
aa(lp864
S'@'
aS'@'
aS'@'
aS'@'
aS'@'
aS'@'
aS'@'
aS'@'
aS'@'
aS'@'
aS'@'
aS'@'
aS'@'
aS'@'
aS'@'
aS'@'
aS'@'
aS'@'
aS'@'
aS'@'
aa(lp865
S'@'
aS'@'
aS'@'
aS'@'
aS'@'
aS'@'
aS'@'
aS'@'
aS'@'
aS'@'
aS'@'
aS'@'
aS'@'
aS'@'
aS'@'
aS'@'
aS'@'
aS'@'
aS'@'
aS'@'
aa(lp866
S'@'
aS'@'
aS'@'
aS'@'
aS'@'
aS'@'
aS'@'
aS'@'
aS'@'
aS'@'
aS'@'
aS'@'
aS'@'
aS'@'
aS'@'
aS'@'
aS'@'
aS'@'
aS'@'
aS'@'
aa(lp867
S'@'
aS'@'
aS'@'
aS'@'
aS'@'
aS'@'
aS'@'
aS'@'
aS'@'
aS'@'
aS'@'
aS'@'
aS'@'
aS'@'
aS'@'
aS'@'
aS'@'
aS'@'
aS'@'
aS'@'
aa(lp868
S'@'
aS'@'
aS'@'
aS'@'
aS'@'
aS'@'
aS'@'
aS'@'
aS'@'
aS'@'
aS'@'
aS'@'
aS'@'
aS'@'
aS'@'
aS'@'
aS'@'
aS'@'
aS'@'
aS'@'
aa(lp869
S'@'
aS'@'
aS'@'
aS'@'
aS'@'
aS'@'
aS'@'
aS'@'
aS'@'
aS'@'
aS'@'
aS'@'
aS'@'
aS'@'
aS'@'
aS'@'
aS'@'
aS'@'
aS'@'
aS'@'
aa(lp870
S'@'
aS'@'
aS'@'
aS'@'
aS'@'
aS'@'
aS'@'
aS'@'
aS'@'
aS'@'
aS'@'
aS'@'
aS'@'
aS'@'
aS'@'
aS'@'
aS'@'
aS'@'
aS'@'
aS'@'
aa(lp871
S'@'
aS'@'
aS'@'
aS'@'
aS'@'
aS'@'
aS'@'
aS'@'
aS'@'
aS'@'
aS'@'
aS'@'
aS'@'
aS'@'
aS'@'
aS'@'
aS'@'
aS'@'
aS'@'
aS'@'
aa(lp872
S'@'
aS'@'
aS'@'
aS'@'
aS'@'
aS'@'
aS'@'
aS'@'
aS'@'
aS'@'
aS'@'
aS'@'
aS'@'
aS'@'
aS'@'
aS'@'
aS'@'
aS'@'
aS'@'
aS'@'
aa(lp873
S'@'
aS'@'
aS'@'
aS'@'
aS'@'
aS'@'
aS'@'
aS'@'
aS'@'
aS'@'
aS'@'
aS'@'
aS'@'
aS'@'
aS'@'
aS'@'
aS'@'
aS'@'
aS'@'
aS'@'
aa(lp874
S'@'
aS'@'
aS'@'
aS'@'
aS'@'
aS'@'
aS'@'
aS'@'
aS'@'
aS'@'
aS'@'
aS'@'
aS'@'
aS'@'
aS'@'
aS'@'
aS'@'
aS'@'
aS'@'
aS'@'
aa(lp875
S'@'
aS'@'
aS'@'
aS'@'
aS'@'
aS'@'
aS'@'
aS'@'
aS'@'
aS'@'
aS'@'
aS'@'
aS'@'
aS'@'
aS'@'
aS'@'
aS'@'
aS'@'
aS'@'
aS'@'
aa(lp876
S'@'
aS'@'
aS'@'
aS'@'
aS'@'
aS'@'
aS'@'
aS'@'
aS'@'
aS'@'
aS'@'
aS'@'
aS'@'
aS'@'
aS'@'
aS'@'
aS'@'
aS'@'
aS'@'
aS'@'
aa(lp877
S'@'
aS'@'
aS'@'
aS'@'
aS'@'
aS'@'
aS'@'
aS'@'
aS'@'
aS'@'
aS'@'
aS'@'
aS'@'
aS'@'
aS'@'
aS'@'
aS'@'
aS'@'
aS'@'
aS'@'
aa(lp878
S'@'
aS'@'
aS'@'
aS'@'
aS'@'
aS'@'
aS'@'
aS'@'
aS'@'
aS'@'
aS'@'
aS'@'
aS'@'
aS'@'
aS'@'
aS'@'
aS'@'
aS'@'
aS'@'
aS'@'
aa(lp879
S'@'
aS'@'
aS'@'
aS'@'
aS'@'
aS'@'
aS'@'
aS'@'
aS'@'
aS'@'
aS'@'
aS'@'
aS'@'
aS'@'
aS'@'
aS'@'
aS'@'
aS'@'
aS'@'
aS'@'
aa(lp880
S'@'
aS'@'
aS'@'
aS'@'
aS'@'
aS'@'
aS'@'
aS'@'
aS'@'
aS'@'
aS'@'
aS'@'
aS'0_3'
p881
aS'@'
aS'@'
aS'@'
aS'@'
aS'@'
aS'@'
aS'@'
aasI11
(lp882
(lp883
S'@'
aS'@'
aS'@'
aS'@'
aS'@'
aS'@'
aS'@'
aS'@'
aS'@'
aS'@'
aS'@'
aS'@'
aS'@'
aS'@'
aS'@'
aS'@'
aS'@'
aS'@'
aS'@'
aS'@'
aa(lp884
S'@'
aS'@'
aS'@'
aS'@'
aS'@'
aS'@'
aS'@'
aS'@'
aS'@'
aS'@'
aS'@'
aS'@'
aS'@'
aS'@'
aS'@'
aS'@'
aS'@'
aS'@'
aS'@'
aS'@'
aa(lp885
S'@'
aS'@'
aS'@'
aS'@'
aS'@'
aS'@'
aS'@'
aS'@'
aS'@'
aS'@'
aS'@'
aS'@'
aS'@'
aS'@'
aS'@'
aS'@'
aS'@'
aS'@'
aS'@'
aS'@'
aa(lp886
S'@'
aS'@'
aS'@'
aS'@'
aS'@'
aS'@'
aS'@'
aS'@'
aS'@'
aS'@'
aS'@'
aS'@'
aS'@'
aS'@'
aS'@'
aS'@'
aS'@'
aS'@'
aS'@'
aS'@'
aa(lp887
S'@'
aS'@'
aS'@'
aS'@'
aS'@'
aS'@'
aS'@'
aS'@'
aS'@'
aS'@'
aS'@'
aS'@'
aS'@'
aS'@'
aS'@'
aS'@'
aS'@'
aS'@'
aS'@'
aS'@'
aa(lp888
S'@'
aS'@'
aS'@'
aS'@'
aS'@'
aS'@'
aS'@'
aS'@'
aS'@'
aS'@'
aS'@'
aS'@'
aS'@'
aS'@'
aS'@'
aS'@'
aS'@'
aS'@'
aS'@'
aS'@'
aa(lp889
S'@'
aS'@'
aS'@'
aS'@'
aS'@'
aS'@'
aS'@'
aS'@'
aS'@'
aS'@'
aS'@'
aS'@'
aS'@'
aS'@'
aS'@'
aS'@'
aS'@'
aS'@'
aS'@'
aS'@'
aa(lp890
S'@'
aS'@'
aS'@'
aS'@'
aS'@'
aS'@'
aS'@'
aS'@'
aS'@'
aS'@'
aS'@'
aS'@'
aS'@'
aS'@'
aS'@'
aS'@'
aS'@'
aS'@'
aS'@'
aS'@'
aa(lp891
S'@'
aS'@'
aS'@'
aS'@'
aS'@'
aS'@'
aS'@'
aS'@'
aS'@'
aS'@'
aS'@'
aS'@'
aS'@'
aS'@'
aS'@'
aS'@'
aS'@'
aS'@'
aS'@'
aS'@'
aa(lp892
S'@'
aS'@'
aS'@'
aS'@'
aS'@'
aS'@'
aS'@'
aS'@'
aS'@'
aS'@'
aS'@'
aS'@'
aS'@'
aS'@'
aS'@'
aS'@'
aS'@'
aS'@'
aS'@'
aS'@'
aa(lp893
S'@'
aS'@'
aS'@'
aS'@'
aS'@'
aS'@'
aS'@'
aS'@'
aS'@'
aS'@'
aS'@'
aS'@'
aS'@'
aS'@'
aS'@'
aS'@'
aS'@'
aS'@'
aS'@'
aS'@'
aa(lp894
S'@'
aS'@'
aS'@'
aS'@'
aS'@'
aS'@'
aS'@'
aS'@'
aS'@'
aS'@'
aS'@'
aS'@'
aS'@'
aS'@'
aS'@'
aS'@'
aS'@'
aS'@'
aS'@'
aS'@'
aa(lp895
S'@'
aS'@'
aS'@'
aS'@'
aS'@'
aS'@'
aS'@'
aS'@'
aS'@'
aS'@'
aS'@'
aS'@'
aS'@'
aS'@'
aS'@'
aS'@'
aS'@'
aS'@'
aS'@'
aS'@'
aa(lp896
S'@'
aS'@'
aS'@'
aS'@'
aS'@'
aS'@'
aS'@'
aS'@'
aS'@'
aS'@'
aS'@'
aS'@'
aS'@'
aS'@'
aS'@'
aS'@'
aS'@'
aS'@'
aS'@'
aS'@'
aa(lp897
S'@'
aS'@'
aS'@'
aS'@'
aS'@'
aS'@'
aS'@'
aS'@'
aS'@'
aS'@'
aS'@'
aS'@'
aS'@'
aS'@'
aS'@'
aS'@'
aS'@'
aS'@'
aS'@'
aS'@'
aa(lp898
S'@'
aS'@'
aS'@'
aS'@'
aS'@'
aS'@'
aS'@'
aS'@'
aS'@'
aS'@'
aS'@'
aS'@'
aS'@'
aS'@'
aS'@'
aS'@'
aS'@'
aS'@'
aS'@'
aS'@'
aa(lp899
S'@'
aS'@'
aS'@'
aS'@'
aS'@'
aS'@'
aS'@'
aS'@'
aS'@'
aS'@'
aS'@'
aS'@'
aS'@'
aS'@'
aS'@'
aS'@'
aS'@'
aS'@'
aS'@'
aS'@'
aa(lp900
S'@'
aS'@'
aS'@'
aS'@'
aS'@'
aS'@'
aS'@'
aS'@'
aS'@'
aS'@'
aS'@'
aS'@'
aS'@'
aS'@'
aS'@'
aS'@'
aS'@'
aS'@'
aS'@'
aS'@'
aa(lp901
S'@'
aS'@'
aS'@'
aS'@'
aS'@'
aS'@'
aS'@'
aS'@'
aS'@'
aS'@'
aS'@'
aS'@'
aS'@'
aS'@'
aS'@'
aS'@'
aS'@'
aS'@'
aS'@'
aS'@'
aa(lp902
S'@'
aS'@'
aS'@'
aS'@'
aS'@'
aS'@'
aS'@'
aS'@'
aS'@'
aS'@'
aS'@'
aS'@'
aS'@'
aS'@'
aS'@'
aS'@'
aS'@'
aS'@'
aS'@'
aS'@'
aasI12
(lp903
(lp904
S'@'
aS'@'
aS'@'
aS'@'
aS'@'
aS'@'
aS'@'
aS'@'
aS'@'
aS'@'
aS'@'
aS'@'
aS'@'
aS'@'
aS'@'
aS'@'
aS'@'
aS'@'
aS'@'
aS'@'
aa(lp905
S'@'
aS'@'
aS'@'
aS'@'
aS'@'
aS'@'
aS'@'
aS'@'
aS'@'
aS'@'
aS'@'
aS'@'
aS'@'
aS'@'
aS'@'
aS'@'
aS'@'
aS'@'
aS'@'
aS'@'
aa(lp906
S'@'
aS'@'
aS'@'
aS'@'
aS'@'
aS'@'
aS'@'
aS'@'
aS'@'
aS'@'
aS'@'
aS'@'
aS'@'
aS'@'
aS'@'
aS'@'
aS'@'
aS'@'
aS'@'
aS'@'
aa(lp907
S'@'
aS'@'
aS'@'
aS'@'
aS'@'
aS'@'
aS'@'
aS'@'
aS'@'
aS'@'
aS'@'
aS'@'
aS'@'
aS'@'
aS'@'
aS'@'
aS'@'
aS'@'
aS'@'
aS'@'
aa(lp908
S'@'
aS'@'
aS'@'
aS'@'
aS'@'
aS'@'
aS'@'
aS'@'
aS'@'
aS'@'
aS'@'
aS'@'
aS'@'
aS'@'
aS'@'
aS'@'
aS'@'
aS'@'
aS'@'
aS'@'
aa(lp909
S'@'
aS'@'
aS'@'
aS'@'
aS'@'
aS'@'
aS'@'
aS'@'
aS'@'
aS'@'
aS'@'
aS'@'
aS'@'
aS'@'
aS'@'
aS'@'
aS'@'
aS'@'
aS'@'
aS'@'
aa(lp910
S'@'
aS'@'
aS'@'
aS'@'
aS'@'
aS'@'
aS'@'
aS'@'
aS'@'
aS'@'
aS'@'
aS'@'
aS'@'
aS'@'
aS'@'
aS'@'
aS'@'
aS'@'
aS'@'
aS'@'
aa(lp911
S'@'
aS'@'
aS'@'
aS'@'
aS'@'
aS'@'
aS'@'
aS'@'
aS'@'
aS'@'
aS'@'
aS'@'
aS'@'
aS'@'
aS'@'
aS'@'
aS'@'
aS'@'
aS'@'
aS'@'
aa(lp912
S'@'
aS'@'
aS'@'
aS'@'
aS'@'
aS'@'
aS'@'
aS'@'
aS'@'
aS'@'
aS'@'
aS'@'
aS'@'
aS'@'
aS'@'
aS'@'
aS'@'
aS'@'
aS'@'
aS'@'
aa(lp913
S'@'
aS'@'
aS'@'
aS'@'
aS'@'
aS'@'
aS'@'
aS'@'
aS'@'
aS'@'
aS'@'
aS'@'
aS'@'
aS'@'
aS'@'
aS'@'
aS'@'
aS'@'
aS'@'
aS'@'
aa(lp914
S'@'
aS'@'
aS'@'
aS'@'
aS'@'
aS'@'
aS'@'
aS'@'
aS'@'
aS'@'
aS'@'
aS'@'
aS'@'
aS'@'
aS'@'
aS'@'
aS'@'
aS'@'
aS'@'
aS'@'
aa(lp915
S'@'
aS'@'
aS'@'
aS'@'
aS'@'
aS'@'
aS'@'
aS'@'
aS'@'
aS'@'
aS'@'
aS'@'
aS'@'
aS'@'
aS'@'
aS'@'
aS'@'
aS'@'
aS'@'
aS'@'
aa(lp916
S'@'
aS'@'
aS'@'
aS'@'
aS'@'
aS'@'
aS'@'
aS'@'
aS'@'
aS'@'
aS'@'
aS'@'
aS'@'
aS'@'
aS'@'
aS'@'
aS'@'
aS'@'
aS'@'
aS'@'
aa(lp917
S'@'
aS'@'
aS'@'
aS'@'
aS'@'
aS'@'
aS'@'
aS'@'
aS'@'
aS'@'
aS'@'
aS'@'
aS'@'
aS'@'
aS'@'
aS'@'
aS'@'
aS'@'
aS'@'
aS'@'
aa(lp918
S'@'
aS'@'
aS'@'
aS'@'
aS'@'
aS'@'
aS'@'
aS'@'
aS'@'
aS'@'
aS'@'
aS'@'
aS'@'
aS'@'
aS'@'
aS'@'
aS'@'
aS'@'
aS'@'
aS'@'
aa(lp919
S'@'
aS'@'
aS'@'
aS'@'
aS'@'
aS'@'
aS'@'
aS'@'
aS'@'
aS'@'
aS'@'
aS'@'
aS'@'
aS'@'
aS'@'
aS'@'
aS'@'
aS'@'
aS'@'
aS'@'
aa(lp920
S'@'
aS'@'
aS'@'
aS'@'
aS'@'
aS'@'
aS'@'
aS'@'
aS'@'
aS'@'
aS'@'
aS'@'
aS'@'
aS'@'
aS'@'
aS'@'
aS'@'
aS'@'
aS'@'
aS'@'
aa(lp921
S'@'
aS'@'
aS'@'
aS'@'
aS'@'
aS'@'
aS'@'
aS'@'
aS'@'
aS'@'
aS'@'
aS'@'
aS'@'
aS'@'
aS'@'
aS'@'
aS'@'
aS'@'
aS'@'
aS'@'
aa(lp922
S'@'
aS'@'
aS'@'
aS'@'
aS'@'
aS'@'
aS'@'
aS'@'
aS'@'
aS'@'
aS'@'
aS'@'
aS'@'
aS'@'
aS'@'
aS'@'
aS'@'
aS'@'
aS'@'
aS'@'
aa(lp923
S'@'
aS'@'
aS'@'
aS'@'
aS'@'
aS'@'
aS'@'
aS'@'
aS'@'
aS'@'
aS'@'
aS'@'
aS'@'
aS'@'
aS'@'
aS'@'
aS'@'
aS'@'
aS'@'
aS'@'
aasI13
(lp924
(lp925
S'@'
aS'@'
aS'@'
aS'@'
aS'@'
aS'@'
aS'@'
aS'@'
aS'@'
aS'@'
aS'@'
aS'@'
aS'@'
aS'@'
aS'@'
aS'@'
aS'@'
aS'@'
aS'@'
aS'@'
aa(lp926
S'@'
aS'@'
aS'@'
aS'@'
aS'@'
aS'@'
aS'@'
aS'@'
aS'@'
aS'@'
aS'@'
aS'@'
aS'@'
aS'@'
aS'@'
aS'@'
aS'@'
aS'@'
aS'@'
aS'@'
aa(lp927
S'@'
aS'@'
aS'@'
aS'@'
aS'@'
aS'@'
aS'@'
aS'@'
aS'@'
aS'@'
aS'@'
aS'@'
aS'@'
aS'@'
aS'@'
aS'@'
aS'@'
aS'@'
aS'@'
aS'@'
aa(lp928
S'@'
aS'@'
aS'@'
aS'@'
aS'@'
aS'@'
aS'@'
aS'@'
aS'@'
aS'@'
aS'@'
aS'@'
aS'@'
aS'@'
aS'@'
aS'@'
aS'@'
aS'@'
aS'@'
aS'@'
aa(lp929
S'@'
aS'@'
aS'@'
aS'@'
aS'@'
aS'@'
aS'@'
aS'@'
aS'@'
aS'@'
aS'@'
aS'@'
aS'@'
aS'@'
aS'@'
aS'@'
aS'@'
aS'@'
aS'@'
aS'@'
aa(lp930
S'@'
aS'@'
aS'@'
aS'@'
aS'@'
aS'@'
aS'@'
aS'@'
aS'@'
aS'@'
aS'@'
aS'@'
aS'@'
aS'@'
aS'@'
aS'@'
aS'@'
aS'@'
aS'@'
aS'@'
aa(lp931
S'@'
aS'@'
aS'@'
aS'@'
aS'@'
aS'@'
aS'@'
aS'@'
aS'@'
aS'@'
aS'@'
aS'@'
aS'@'
aS'@'
aS'@'
aS'@'
aS'@'
aS'@'
aS'@'
aS'@'
aa(lp932
S'@'
aS'@'
aS'@'
aS'@'
aS'@'
aS'@'
aS'@'
aS'@'
aS'@'
aS'@'
aS'@'
aS'@'
aS'@'
aS'@'
aS'@'
aS'@'
aS'@'
aS'@'
aS'@'
aS'@'
aa(lp933
S'@'
aS'@'
aS'@'
aS'@'
aS'@'
aS'@'
aS'@'
aS'@'
aS'@'
aS'@'
aS'@'
aS'@'
aS'@'
aS'@'
aS'@'
aS'@'
aS'@'
aS'@'
aS'@'
aS'@'
aa(lp934
S'@'
aS'@'
aS'@'
aS'@'
aS'@'
aS'@'
aS'@'
aS'@'
aS'@'
aS'@'
aS'@'
aS'@'
aS'@'
aS'@'
aS'@'
aS'@'
aS'@'
aS'@'
aS'@'
aS'@'
aa(lp935
S'@'
aS'@'
aS'@'
aS'@'
aS'@'
aS'@'
aS'@'
aS'@'
aS'@'
aS'@'
aS'@'
aS'@'
aS'@'
aS'@'
aS'@'
aS'@'
aS'@'
aS'@'
aS'@'
aS'@'
aa(lp936
S'@'
aS'@'
aS'@'
aS'@'
aS'@'
aS'@'
aS'@'
aS'@'
aS'@'
aS'@'
aS'@'
aS'@'
aS'@'
aS'@'
aS'@'
aS'@'
aS'@'
aS'@'
aS'@'
aS'@'
aa(lp937
S'@'
aS'@'
aS'@'
aS'@'
aS'@'
aS'@'
aS'@'
aS'@'
aS'@'
aS'@'
aS'@'
aS'@'
aS'@'
aS'@'
aS'@'
aS'@'
aS'@'
aS'@'
aS'@'
aS'@'
aa(lp938
S'@'
aS'@'
aS'@'
aS'@'
aS'@'
aS'@'
aS'@'
aS'@'
aS'@'
aS'@'
aS'@'
aS'@'
aS'@'
aS'@'
aS'@'
aS'@'
aS'@'
aS'@'
aS'@'
aS'@'
aa(lp939
S'@'
aS'@'
aS'@'
aS'@'
aS'@'
aS'@'
aS'@'
aS'@'
aS'@'
aS'@'
aS'@'
aS'@'
aS'@'
aS'@'
aS'@'
aS'@'
aS'@'
aS'@'
aS'@'
aS'@'
aa(lp940
S'@'
aS'@'
aS'@'
aS'@'
aS'@'
aS'@'
aS'@'
aS'@'
aS'@'
aS'@'
aS'@'
aS'@'
aS'@'
aS'@'
aS'@'
aS'@'
aS'@'
aS'@'
aS'@'
aS'@'
aa(lp941
S'@'
aS'@'
aS'@'
aS'@'
aS'@'
aS'@'
aS'@'
aS'@'
aS'@'
aS'@'
aS'@'
aS'@'
aS'@'
aS'@'
aS'@'
aS'@'
aS'@'
aS'@'
aS'@'
aS'@'
aa(lp942
S'@'
aS'@'
aS'@'
aS'@'
aS'@'
aS'@'
aS'@'
aS'@'
aS'@'
aS'@'
aS'@'
aS'@'
aS'@'
aS'@'
aS'@'
aS'@'
aS'@'
aS'@'
aS'@'
aS'@'
aa(lp943
S'@'
aS'@'
aS'@'
aS'@'
aS'@'
aS'@'
aS'@'
aS'@'
aS'@'
aS'@'
aS'@'
aS'@'
aS'@'
aS'@'
aS'@'
aS'@'
aS'@'
aS'@'
aS'@'
aS'@'
aa(lp944
S'@'
aS'@'
aS'@'
aS'@'
aS'@'
aS'@'
aS'@'
aS'@'
aS'@'
aS'@'
aS'@'
aS'@'
aS'@'
aS'@'
aS'@'
aS'@'
aS'@'
aS'@'
aS'@'
aS'@'
aasI14
(lp945
(lp946
S'@'
aS'@'
aS'@'
aS'@'
aS'@'
aS'@'
aS'@'
aS'@'
aS'@'
aS'@'
aS'@'
aS'@'
aS'@'
aS'@'
aS'@'
aS'@'
aS'@'
aS'@'
aS'@'
aS'@'
aa(lp947
S'@'
aS'@'
aS'@'
aS'@'
aS'@'
aS'@'
aS'@'
aS'@'
aS'@'
aS'@'
aS'@'
aS'@'
aS'@'
aS'@'
aS'@'
aS'@'
aS'@'
aS'@'
aS'@'
aS'@'
aa(lp948
S'@'
aS'@'
aS'@'
aS'@'
aS'@'
aS'@'
aS'@'
aS'@'
aS'@'
aS'@'
aS'@'
aS'@'
aS'@'
aS'@'
aS'@'
aS'@'
aS'@'
aS'@'
aS'@'
aS'@'
aa(lp949
S'@'
aS'@'
aS'@'
aS'@'
aS'@'
aS'@'
aS'@'
aS'@'
aS'@'
aS'@'
aS'@'
aS'@'
aS'@'
aS'@'
aS'@'
aS'@'
aS'@'
aS'@'
aS'@'
aS'@'
aa(lp950
S'@'
aS'@'
aS'@'
aS'@'
aS'@'
aS'@'
aS'@'
aS'@'
aS'@'
aS'@'
aS'@'
aS'@'
aS'@'
aS'@'
aS'@'
aS'@'
aS'@'
aS'@'
aS'@'
aS'@'
aa(lp951
S'@'
aS'@'
aS'@'
aS'@'
aS'@'
aS'@'
aS'@'
aS'@'
aS'@'
aS'@'
aS'@'
aS'@'
aS'@'
aS'@'
aS'@'
aS'@'
aS'@'
aS'@'
aS'@'
aS'@'
aa(lp952
S'@'
aS'@'
aS'@'
aS'@'
aS'@'
aS'@'
aS'@'
aS'@'
aS'@'
aS'@'
aS'@'
aS'@'
aS'@'
aS'@'
aS'@'
aS'@'
aS'@'
aS'@'
aS'@'
aS'@'
aa(lp953
S'@'
aS'@'
aS'@'
aS'@'
aS'@'
aS'@'
aS'@'
aS'@'
aS'@'
aS'@'
aS'@'
aS'@'
aS'@'
aS'@'
aS'@'
aS'@'
aS'@'
aS'@'
aS'@'
aS'@'
aa(lp954
S'@'
aS'@'
aS'@'
aS'@'
aS'@'
aS'@'
aS'@'
aS'@'
aS'@'
aS'@'
aS'@'
aS'@'
aS'@'
aS'@'
aS'@'
aS'@'
aS'@'
aS'@'
aS'@'
aS'@'
aa(lp955
S'@'
aS'@'
aS'@'
aS'@'
aS'@'
aS'@'
aS'@'
aS'@'
aS'@'
aS'@'
aS'@'
aS'@'
aS'@'
aS'@'
aS'@'
aS'@'
aS'@'
aS'@'
aS'@'
aS'@'
aa(lp956
S'@'
aS'@'
aS'@'
aS'@'
aS'@'
aS'@'
aS'@'
aS'@'
aS'@'
aS'@'
aS'@'
aS'@'
aS'@'
aS'@'
aS'@'
aS'@'
aS'@'
aS'@'
aS'@'
aS'@'
aa(lp957
S'@'
aS'@'
aS'@'
aS'@'
aS'@'
aS'@'
aS'@'
aS'@'
aS'@'
aS'@'
aS'@'
aS'@'
aS'@'
aS'@'
aS'@'
aS'@'
aS'@'
aS'@'
aS'@'
aS'@'
aa(lp958
S'@'
aS'@'
aS'@'
aS'@'
aS'@'
aS'@'
aS'@'
aS'@'
aS'@'
aS'@'
aS'@'
aS'@'
aS'@'
aS'@'
aS'@'
aS'@'
aS'@'
aS'@'
aS'@'
aS'@'
aa(lp959
S'@'
aS'@'
aS'@'
aS'@'
aS'@'
aS'@'
aS'@'
aS'@'
aS'@'
aS'@'
aS'@'
aS'@'
aS'@'
aS'@'
aS'@'
aS'@'
aS'@'
aS'@'
aS'@'
aS'@'
aa(lp960
S'@'
aS'@'
aS'@'
aS'@'
aS'@'
aS'@'
aS'@'
aS'@'
aS'@'
aS'@'
aS'@'
aS'@'
aS'@'
aS'@'
aS'@'
aS'@'
aS'@'
aS'@'
aS'@'
aS'@'
aa(lp961
S'@'
aS'@'
aS'@'
aS'@'
aS'@'
aS'@'
aS'@'
aS'@'
aS'@'
aS'@'
aS'@'
aS'@'
aS'@'
aS'@'
aS'@'
aS'@'
aS'@'
aS'@'
aS'@'
aS'@'
aa(lp962
S'@'
aS'@'
aS'@'
aS'@'
aS'@'
aS'@'
aS'@'
aS'@'
aS'@'
aS'@'
aS'@'
aS'@'
aS'@'
aS'@'
aS'@'
aS'@'
aS'@'
aS'@'
aS'@'
aS'@'
aa(lp963
S'@'
aS'@'
aS'@'
aS'@'
aS'@'
aS'@'
aS'@'
aS'@'
aS'@'
aS'@'
aS'@'
aS'@'
aS'@'
aS'@'
aS'@'
aS'@'
aS'@'
aS'@'
aS'@'
aS'@'
aa(lp964
S'@'
aS'@'
aS'@'
aS'@'
aS'@'
aS'@'
aS'@'
aS'@'
aS'@'
aS'@'
aS'@'
aS'@'
aS'@'
aS'@'
aS'@'
aS'@'
aS'@'
aS'@'
aS'@'
aS'@'
aa(lp965
S'@'
aS'@'
aS'@'
aS'@'
aS'@'
aS'@'
aS'@'
aS'@'
aS'@'
aS'@'
aS'@'
aS'@'
aS'@'
aS'@'
aS'@'
aS'@'
aS'@'
aS'@'
aS'@'
aS'@'
aas.